###############################################################################
#
# IAR ELF Linker V7.10.3.6832/W32 for ARM                 05/Jun/2014  06:40:33
# Copyright 2007-2014 IAR Systems AB.
#
#    Output file  =  
#        C:\Users\Nguyen\Documents\GitHub\FinalProject\Z-Stack Home
#        1.2.0\Projects\zstack\HomeAutomation\SampleSwitch -
#        Copy\CC2538\EndDevice\Exe\SampleSwitch.out
#    Map file     =  
#        C:\Users\Nguyen\Documents\GitHub\FinalProject\Z-Stack Home
#        1.2.0\Projects\zstack\HomeAutomation\SampleSwitch -
#        Copy\CC2538\EndDevice\List\SampleSwitch.map
#    Command line =  
#        "C:\Users\Nguyen\Documents\GitHub\FinalProject\Z-Stack Home
#        1.2.0\Projects\zstack\HomeAutomation\SampleSwitch -
#        Copy\CC2538\EndDevice\Obj\AF.o"
#        "C:\Users\Nguyen\Documents\GitHub\FinalProject\Z-Stack Home
#        1.2.0\Projects\zstack\HomeAutomation\SampleSwitch -
#        Copy\CC2538\EndDevice\Obj\armcm3flashutil.o"
#        "C:\Users\Nguyen\Documents\GitHub\FinalProject\Z-Stack Home
#        1.2.0\Projects\zstack\HomeAutomation\SampleSwitch -
#        Copy\CC2538\EndDevice\Obj\BindingTable.o"
#        "C:\Users\Nguyen\Documents\GitHub\FinalProject\Z-Stack Home
#        1.2.0\Projects\zstack\HomeAutomation\SampleSwitch -
#        Copy\CC2538\EndDevice\Obj\DebugTrace.o"
#        "C:\Users\Nguyen\Documents\GitHub\FinalProject\Z-Stack Home
#        1.2.0\Projects\zstack\HomeAutomation\SampleSwitch -
#        Copy\CC2538\EndDevice\Obj\hal_adc.o"
#        "C:\Users\Nguyen\Documents\GitHub\FinalProject\Z-Stack Home
#        1.2.0\Projects\zstack\HomeAutomation\SampleSwitch -
#        Copy\CC2538\EndDevice\Obj\hal_aes.o"
#        "C:\Users\Nguyen\Documents\GitHub\FinalProject\Z-Stack Home
#        1.2.0\Projects\zstack\HomeAutomation\SampleSwitch -
#        Copy\CC2538\EndDevice\Obj\hal_assert.o"
#        "C:\Users\Nguyen\Documents\GitHub\FinalProject\Z-Stack Home
#        1.2.0\Projects\zstack\HomeAutomation\SampleSwitch -
#        Copy\CC2538\EndDevice\Obj\hal_ccm.o"
#        "C:\Users\Nguyen\Documents\GitHub\FinalProject\Z-Stack Home
#        1.2.0\Projects\zstack\HomeAutomation\SampleSwitch -
#        Copy\CC2538\EndDevice\Obj\hal_drivers.o"
#        "C:\Users\Nguyen\Documents\GitHub\FinalProject\Z-Stack Home
#        1.2.0\Projects\zstack\HomeAutomation\SampleSwitch -
#        Copy\CC2538\EndDevice\Obj\hal_key.o"
#        "C:\Users\Nguyen\Documents\GitHub\FinalProject\Z-Stack Home
#        1.2.0\Projects\zstack\HomeAutomation\SampleSwitch -
#        Copy\CC2538\EndDevice\Obj\hal_lcd.o"
#        "C:\Users\Nguyen\Documents\GitHub\FinalProject\Z-Stack Home
#        1.2.0\Projects\zstack\HomeAutomation\SampleSwitch -
#        Copy\CC2538\EndDevice\Obj\hal_led.o"
#        "C:\Users\Nguyen\Documents\GitHub\FinalProject\Z-Stack Home
#        1.2.0\Projects\zstack\HomeAutomation\SampleSwitch -
#        Copy\CC2538\EndDevice\Obj\hal_mac_cfg.o"
#        "C:\Users\Nguyen\Documents\GitHub\FinalProject\Z-Stack Home
#        1.2.0\Projects\zstack\HomeAutomation\SampleSwitch -
#        Copy\CC2538\EndDevice\Obj\hal_sleep.o"
#        "C:\Users\Nguyen\Documents\GitHub\FinalProject\Z-Stack Home
#        1.2.0\Projects\zstack\HomeAutomation\SampleSwitch -
#        Copy\CC2538\EndDevice\Obj\hal_sys_ctrl.o"
#        "C:\Users\Nguyen\Documents\GitHub\FinalProject\Z-Stack Home
#        1.2.0\Projects\zstack\HomeAutomation\SampleSwitch -
#        Copy\CC2538\EndDevice\Obj\hal_systick.o"
#        "C:\Users\Nguyen\Documents\GitHub\FinalProject\Z-Stack Home
#        1.2.0\Projects\zstack\HomeAutomation\SampleSwitch -
#        Copy\CC2538\EndDevice\Obj\hal_uart.o"
#        "C:\Users\Nguyen\Documents\GitHub\FinalProject\Z-Stack Home
#        1.2.0\Projects\zstack\HomeAutomation\SampleSwitch -
#        Copy\CC2538\EndDevice\Obj\mac_autopend.o"
#        "C:\Users\Nguyen\Documents\GitHub\FinalProject\Z-Stack Home
#        1.2.0\Projects\zstack\HomeAutomation\SampleSwitch -
#        Copy\CC2538\EndDevice\Obj\mac_backoff_timer.o"
#        "C:\Users\Nguyen\Documents\GitHub\FinalProject\Z-Stack Home
#        1.2.0\Projects\zstack\HomeAutomation\SampleSwitch -
#        Copy\CC2538\EndDevice\Obj\mac_cfg.o"
#        "C:\Users\Nguyen\Documents\GitHub\FinalProject\Z-Stack Home
#        1.2.0\Projects\zstack\HomeAutomation\SampleSwitch -
#        Copy\CC2538\EndDevice\Obj\mac_csp_tx.o"
#        "C:\Users\Nguyen\Documents\GitHub\FinalProject\Z-Stack Home
#        1.2.0\Projects\zstack\HomeAutomation\SampleSwitch -
#        Copy\CC2538\EndDevice\Obj\mac_low_level.o"
#        "C:\Users\Nguyen\Documents\GitHub\FinalProject\Z-Stack Home
#        1.2.0\Projects\zstack\HomeAutomation\SampleSwitch -
#        Copy\CC2538\EndDevice\Obj\mac_mcu.o"
#        "C:\Users\Nguyen\Documents\GitHub\FinalProject\Z-Stack Home
#        1.2.0\Projects\zstack\HomeAutomation\SampleSwitch -
#        Copy\CC2538\EndDevice\Obj\mac_mem.o"
#        "C:\Users\Nguyen\Documents\GitHub\FinalProject\Z-Stack Home
#        1.2.0\Projects\zstack\HomeAutomation\SampleSwitch -
#        Copy\CC2538\EndDevice\Obj\mac_pib.o"
#        "C:\Users\Nguyen\Documents\GitHub\FinalProject\Z-Stack Home
#        1.2.0\Projects\zstack\HomeAutomation\SampleSwitch -
#        Copy\CC2538\EndDevice\Obj\mac_radio.o"
#        "C:\Users\Nguyen\Documents\GitHub\FinalProject\Z-Stack Home
#        1.2.0\Projects\zstack\HomeAutomation\SampleSwitch -
#        Copy\CC2538\EndDevice\Obj\mac_radio_defs.o"
#        "C:\Users\Nguyen\Documents\GitHub\FinalProject\Z-Stack Home
#        1.2.0\Projects\zstack\HomeAutomation\SampleSwitch -
#        Copy\CC2538\EndDevice\Obj\mac_rffrontend.o"
#        "C:\Users\Nguyen\Documents\GitHub\FinalProject\Z-Stack Home
#        1.2.0\Projects\zstack\HomeAutomation\SampleSwitch -
#        Copy\CC2538\EndDevice\Obj\mac_rx.o"
#        "C:\Users\Nguyen\Documents\GitHub\FinalProject\Z-Stack Home
#        1.2.0\Projects\zstack\HomeAutomation\SampleSwitch -
#        Copy\CC2538\EndDevice\Obj\mac_rx_onoff.o"
#        "C:\Users\Nguyen\Documents\GitHub\FinalProject\Z-Stack Home
#        1.2.0\Projects\zstack\HomeAutomation\SampleSwitch -
#        Copy\CC2538\EndDevice\Obj\mac_sleep.o"
#        "C:\Users\Nguyen\Documents\GitHub\FinalProject\Z-Stack Home
#        1.2.0\Projects\zstack\HomeAutomation\SampleSwitch -
#        Copy\CC2538\EndDevice\Obj\mac_tx.o"
#        "C:\Users\Nguyen\Documents\GitHub\FinalProject\Z-Stack Home
#        1.2.0\Projects\zstack\HomeAutomation\SampleSwitch -
#        Copy\CC2538\EndDevice\Obj\MT.o"
#        "C:\Users\Nguyen\Documents\GitHub\FinalProject\Z-Stack Home
#        1.2.0\Projects\zstack\HomeAutomation\SampleSwitch -
#        Copy\CC2538\EndDevice\Obj\MT_AF.o"
#        "C:\Users\Nguyen\Documents\GitHub\FinalProject\Z-Stack Home
#        1.2.0\Projects\zstack\HomeAutomation\SampleSwitch -
#        Copy\CC2538\EndDevice\Obj\MT_APP.o"
#        "C:\Users\Nguyen\Documents\GitHub\FinalProject\Z-Stack Home
#        1.2.0\Projects\zstack\HomeAutomation\SampleSwitch -
#        Copy\CC2538\EndDevice\Obj\MT_DEBUG.o"
#        "C:\Users\Nguyen\Documents\GitHub\FinalProject\Z-Stack Home
#        1.2.0\Projects\zstack\HomeAutomation\SampleSwitch -
#        Copy\CC2538\EndDevice\Obj\MT_NWK.o"
#        "C:\Users\Nguyen\Documents\GitHub\FinalProject\Z-Stack Home
#        1.2.0\Projects\zstack\HomeAutomation\SampleSwitch -
#        Copy\CC2538\EndDevice\Obj\MT_SYS.o"
#        "C:\Users\Nguyen\Documents\GitHub\FinalProject\Z-Stack Home
#        1.2.0\Projects\zstack\HomeAutomation\SampleSwitch -
#        Copy\CC2538\EndDevice\Obj\MT_TASK.o"
#        "C:\Users\Nguyen\Documents\GitHub\FinalProject\Z-Stack Home
#        1.2.0\Projects\zstack\HomeAutomation\SampleSwitch -
#        Copy\CC2538\EndDevice\Obj\MT_UART.o"
#        "C:\Users\Nguyen\Documents\GitHub\FinalProject\Z-Stack Home
#        1.2.0\Projects\zstack\HomeAutomation\SampleSwitch -
#        Copy\CC2538\EndDevice\Obj\MT_UTIL.o"
#        "C:\Users\Nguyen\Documents\GitHub\FinalProject\Z-Stack Home
#        1.2.0\Projects\zstack\HomeAutomation\SampleSwitch -
#        Copy\CC2538\EndDevice\Obj\MT_VERSION.o"
#        "C:\Users\Nguyen\Documents\GitHub\FinalProject\Z-Stack Home
#        1.2.0\Projects\zstack\HomeAutomation\SampleSwitch -
#        Copy\CC2538\EndDevice\Obj\MT_ZDO.o"
#        "C:\Users\Nguyen\Documents\GitHub\FinalProject\Z-Stack Home
#        1.2.0\Projects\zstack\HomeAutomation\SampleSwitch -
#        Copy\CC2538\EndDevice\Obj\nwk_globals.o"
#        "C:\Users\Nguyen\Documents\GitHub\FinalProject\Z-Stack Home
#        1.2.0\Projects\zstack\HomeAutomation\SampleSwitch -
#        Copy\CC2538\EndDevice\Obj\OnBoard.o"
#        "C:\Users\Nguyen\Documents\GitHub\FinalProject\Z-Stack Home
#        1.2.0\Projects\zstack\HomeAutomation\SampleSwitch -
#        Copy\CC2538\EndDevice\Obj\OSAL.o"
#        "C:\Users\Nguyen\Documents\GitHub\FinalProject\Z-Stack Home
#        1.2.0\Projects\zstack\HomeAutomation\SampleSwitch -
#        Copy\CC2538\EndDevice\Obj\OSAL_Clock.o"
#        "C:\Users\Nguyen\Documents\GitHub\FinalProject\Z-Stack Home
#        1.2.0\Projects\zstack\HomeAutomation\SampleSwitch -
#        Copy\CC2538\EndDevice\Obj\OSAL_Memory.o"
#        "C:\Users\Nguyen\Documents\GitHub\FinalProject\Z-Stack Home
#        1.2.0\Projects\zstack\HomeAutomation\SampleSwitch -
#        Copy\CC2538\EndDevice\Obj\osal_nv.o"
#        "C:\Users\Nguyen\Documents\GitHub\FinalProject\Z-Stack Home
#        1.2.0\Projects\zstack\HomeAutomation\SampleSwitch -
#        Copy\CC2538\EndDevice\Obj\OSAL_PwrMgr.o"
#        "C:\Users\Nguyen\Documents\GitHub\FinalProject\Z-Stack Home
#        1.2.0\Projects\zstack\HomeAutomation\SampleSwitch -
#        Copy\CC2538\EndDevice\Obj\OSAL_SampleSw.o"
#        "C:\Users\Nguyen\Documents\GitHub\FinalProject\Z-Stack Home
#        1.2.0\Projects\zstack\HomeAutomation\SampleSwitch -
#        Copy\CC2538\EndDevice\Obj\OSAL_Timers.o"
#        "C:\Users\Nguyen\Documents\GitHub\FinalProject\Z-Stack Home
#        1.2.0\Projects\zstack\HomeAutomation\SampleSwitch -
#        Copy\CC2538\EndDevice\Obj\saddr.o"
#        "C:\Users\Nguyen\Documents\GitHub\FinalProject\Z-Stack Home
#        1.2.0\Projects\zstack\HomeAutomation\SampleSwitch -
#        Copy\CC2538\EndDevice\Obj\startup_ewarm.o"
#        "C:\Users\Nguyen\Documents\GitHub\FinalProject\Z-Stack Home
#        1.2.0\Projects\zstack\HomeAutomation\SampleSwitch -
#        Copy\CC2538\EndDevice\Obj\stub_aps.o"
#        "C:\Users\Nguyen\Documents\GitHub\FinalProject\Z-Stack Home
#        1.2.0\Projects\zstack\HomeAutomation\SampleSwitch -
#        Copy\CC2538\EndDevice\Obj\zcl.o"
#        "C:\Users\Nguyen\Documents\GitHub\FinalProject\Z-Stack Home
#        1.2.0\Projects\zstack\HomeAutomation\SampleSwitch -
#        Copy\CC2538\EndDevice\Obj\zcl_ezmode.o"
#        "C:\Users\Nguyen\Documents\GitHub\FinalProject\Z-Stack Home
#        1.2.0\Projects\zstack\HomeAutomation\SampleSwitch -
#        Copy\CC2538\EndDevice\Obj\zcl_general.o"
#        "C:\Users\Nguyen\Documents\GitHub\FinalProject\Z-Stack Home
#        1.2.0\Projects\zstack\HomeAutomation\SampleSwitch -
#        Copy\CC2538\EndDevice\Obj\zcl_ha.o"
#        "C:\Users\Nguyen\Documents\GitHub\FinalProject\Z-Stack Home
#        1.2.0\Projects\zstack\HomeAutomation\SampleSwitch -
#        Copy\CC2538\EndDevice\Obj\zcl_samplesw.o"
#        "C:\Users\Nguyen\Documents\GitHub\FinalProject\Z-Stack Home
#        1.2.0\Projects\zstack\HomeAutomation\SampleSwitch -
#        Copy\CC2538\EndDevice\Obj\zcl_samplesw_data.o"
#        "C:\Users\Nguyen\Documents\GitHub\FinalProject\Z-Stack Home
#        1.2.0\Projects\zstack\HomeAutomation\SampleSwitch -
#        Copy\CC2538\EndDevice\Obj\ZDApp.o"
#        "C:\Users\Nguyen\Documents\GitHub\FinalProject\Z-Stack Home
#        1.2.0\Projects\zstack\HomeAutomation\SampleSwitch -
#        Copy\CC2538\EndDevice\Obj\ZDConfig.o"
#        "C:\Users\Nguyen\Documents\GitHub\FinalProject\Z-Stack Home
#        1.2.0\Projects\zstack\HomeAutomation\SampleSwitch -
#        Copy\CC2538\EndDevice\Obj\ZDNwkMgr.o"
#        "C:\Users\Nguyen\Documents\GitHub\FinalProject\Z-Stack Home
#        1.2.0\Projects\zstack\HomeAutomation\SampleSwitch -
#        Copy\CC2538\EndDevice\Obj\ZDObject.o"
#        "C:\Users\Nguyen\Documents\GitHub\FinalProject\Z-Stack Home
#        1.2.0\Projects\zstack\HomeAutomation\SampleSwitch -
#        Copy\CC2538\EndDevice\Obj\ZDProfile.o"
#        "C:\Users\Nguyen\Documents\GitHub\FinalProject\Z-Stack Home
#        1.2.0\Projects\zstack\HomeAutomation\SampleSwitch -
#        Copy\CC2538\EndDevice\Obj\ZDSecMgr.o"
#        "C:\Users\Nguyen\Documents\GitHub\FinalProject\Z-Stack Home
#        1.2.0\Projects\zstack\HomeAutomation\SampleSwitch -
#        Copy\CC2538\EndDevice\Obj\ZGlobals.o"
#        "C:\Users\Nguyen\Documents\GitHub\FinalProject\Z-Stack Home
#        1.2.0\Projects\zstack\HomeAutomation\SampleSwitch -
#        Copy\CC2538\EndDevice\Obj\zmac.o"
#        "C:\Users\Nguyen\Documents\GitHub\FinalProject\Z-Stack Home
#        1.2.0\Projects\zstack\HomeAutomation\SampleSwitch -
#        Copy\CC2538\EndDevice\Obj\zmac_cb.o"
#        "C:\Users\Nguyen\Documents\GitHub\FinalProject\Z-Stack Home
#        1.2.0\Projects\zstack\HomeAutomation\SampleSwitch -
#        Copy\CC2538\EndDevice\Obj\ZMain.o" --redirect _Printf=_PrintfTiny
#        --redirect _Scanf=_ScanfSmall -o
#        "C:\Users\Nguyen\Documents\GitHub\FinalProject\Z-Stack Home
#        1.2.0\Projects\zstack\HomeAutomation\SampleSwitch -
#        Copy\CC2538\EndDevice\Exe\SampleSwitch.out" --map
#        "C:\Users\Nguyen\Documents\GitHub\FinalProject\Z-Stack Home
#        1.2.0\Projects\zstack\HomeAutomation\SampleSwitch -
#        Copy\CC2538\EndDevice\List\SampleSwitch.map" --config
#        "C:\Users\Nguyen\Documents\GitHub\FinalProject\Z-Stack Home
#        1.2.0\Projects\zstack\HomeAutomation\SampleSwitch -
#        Copy\CC2538\..\..\..\Tools\CC2538DB\CC2538.icf" --semihosting
#        "C:\Users\Nguyen\Documents\GitHub\FinalProject\Z-Stack Home
#        1.2.0\Projects\zstack\HomeAutomation\SampleSwitch -
#        Copy\CC2538\..\..\..\Libraries\CC2538\bin\EndDevice.a"
#        "C:\Users\Nguyen\Documents\GitHub\FinalProject\Z-Stack Home
#        1.2.0\Projects\zstack\HomeAutomation\SampleSwitch -
#        Copy\CC2538\..\..\..\Libraries\TIMAC\bin\TIMAC-CC2538.a"
#        "C:\Users\Nguyen\Documents\GitHub\FinalProject\Z-Stack Home
#        1.2.0\Projects\zstack\HomeAutomation\SampleSwitch -
#        Copy\CC2538\..\..\..\..\..\Components\driverlib\cc2538\bin\iar\sdriverlib.lib"
#        "C:\Users\Nguyen\Documents\GitHub\FinalProject\Z-Stack Home
#        1.2.0\Projects\zstack\HomeAutomation\SampleSwitch -
#        Copy\CC2538\..\..\..\..\..\Components\bsp\srf06eb_cc2538\drivers\bin\iar\bsp.lib"
#        --entry __iar_program_start --vfe
#
###############################################################################

*******************************************************************************
*** RUNTIME MODEL ATTRIBUTES
***

CppFlavor       = *
__SystemLibrary = DLib


*******************************************************************************
*** PLACEMENT SUMMARY
***

"A1":  place at start of [0x00200000-0x0027c7ff] { ro section .intvec };
"A2":  place at start of [0x0027ffd4-0x0027ffdf] { ro section .cca };
"P1":  place in [from 0x00200000 to 0x0027c7ff] { ro };
"A7":  place at start of [0x20004000-0x20007fff] { section VTABLE };
"P2":  place in [from 0x20004000 to 0x20007fff] { rw, block HEAP };

  Section            Kind        Address     Size  Object
  -------            ----        -------     ----  ------
"A1":                                       0x100
  .intvec            const    0x00200000    0x100  startup_ewarm.o [1]
                            - 0x00200100    0x100

"P1":                                     0x1a557
  .text              ro code  0x00200100   0x1e6a  zcl.o [1]
  .text              ro code  0x00201f6a     0x22  zero_init3.o [8]
  .text              ro code  0x00201f8c    0x7a4  OSAL.o [1]
  .text              ro code  0x00202730    0xe38  zcl_samplesw.o [1]
  .text              ro code  0x00203568     0x76  ABImemcpy_unaligned.o [8]
  .rodata            const    0x002035de      0x2  MT_SYS.o [1]
  .text              ro code  0x002035e0    0x20c  OSAL_Memory.o [1]
  .text              ro code  0x002037ec    0x694  AF.o [1]
  .text              ro code  0x00203e80     0x36  strlen.o [8]
  .text              ro code  0x00203eb6     0x14  memset.o [6]
  .rodata            const    0x00203eca      0x2  MT_SYS.o [1]
  .text              ro code  0x00203ecc      0x6  ABImemclr.o [8]
  .rodata            const    0x00203ed2      0x2  nwk_globals.o [1]
  .text              ro code  0x00203ed4    0x10e  OnBoard.o [1]
  .rodata            const    0x00203fe2      0x2  nwk_globals.o [1]
  .text              ro code  0x00203fe4     0x44  strcpy_unaligned.o [8]
  .text              ro code  0x00204028     0x1c  strcat.o [6]
  .text              ro code  0x00204044    0x250  interrupt.o [9]
  .text              ro code  0x00204294    0x308  OSAL_Timers.o [1]
  .text              ro code  0x0020459c     0x14  OSAL_PwrMgr.o [1]
  .text              ro code  0x002045b0     0x88  OSAL_SampleSw.o [1]
  .text              ro code  0x00204638     0x98  hal_drivers.o [1]
  .text              ro code  0x002046d0    0x1c4  gpio.o [9]
  .text              ro code  0x00204894     0x48  als_srf06eb.o [5]
  .text              ro code  0x002048dc     0x30  bsp_led.o [5]
  .text              ro code  0x0020490c     0xc4  zcl_ha.o [1]
  .text              ro code  0x002049d0    0x2b6  zcl_general.o [1]
  .rodata            const    0x00204c86      0x2  nwk_globals.o [1]
  .text              ro code  0x00204c88    0x39c  zcl_ezmode.o [1]
  .text              ro code  0x00205024    0xe44  ZDProfile.o [1]
  .text              ro code  0x00205e68    0x114  hal_lcd.o [1]
  .text              ro code  0x00205f7c    0x3d8  NLMEDE.o [3]
  .text              ro code  0x00206354    0x36c  hal_led.o [1]
  .text              ro code  0x002066c0    0x204  ZGlobals.o [1]
  .text              ro code  0x002068c4    0x8b4  MT_SYS.o [1]
  .text              ro code  0x00207178    0xb06  ZDObject.o [1]
  .rodata            const    0x00207c7e      0x2  nwk_globals.o [1]
  .text              ro code  0x00207c80    0x19c  acc_srf06eb.o [5]
  .text              ro code  0x00207e1c    0x476  hal_uart.o [1]
  .rodata            const    0x00208292      0x2  zcl_samplesw.o [1]
  .text              ro code  0x00208294    0x29c  hal_assert.o [1]
  .text              ro code  0x00208530     0x58  aps_groups.o [3]
  .text              ro code  0x00208588    0xfdc  nwk_util.o [3]
  .text              ro code  0x00209564    0x704  rtg.o [3]
  .text              ro code  0x00209c68     0xa6  saddr.o [1]
  .rodata            const    0x00209d0e      0x1  nwk_globals.o [1]
  .rodata            const    0x00209d0f      0x1  nwk_globals.o [1]
  .text              ro code  0x00209d10    0xac8  APSMEDE.o [3]
  .text              ro code  0x0020a7d8     0x66  ABImemset.o [8]
  .rodata            const    0x0020a83e      0x1  nwk_globals.o [1]
  .rodata            const    0x0020a83f      0x1  nwk_globals.o [1]
  .text              ro code  0x0020a840    0x194  hal_key.o [1]
  .text              ro code  0x0020a9d4    0x6f8  mac_mcu.o [1]
  .text              ro code  0x0020b0cc     0x10  cpu.o [9]
  .text              ro code  0x0020b0dc   0x1dac  mac_beacon.o [4]
  .text              ro code  0x0020ce88    0xb2c  nwk.o [3]
  .text              ro code  0x0020d9b4    0x174  MT_TASK.o [1]
  .text              ro code  0x0020db28    0x6c8  APS.o [3]
  .text              ro code  0x0020e1f0    0x63c  aps_frag.o [3]
  .text              ro code  0x0020e82c   0x14b0  ZDApp.o [1]
  .text              ro code  0x0020fcdc     0x5c  hal_aes.o [1]
  .text              ro code  0x0020fd38    0x2e4  ioc.o [9]
  .text              ro code  0x0021001c     0x50  adc.o [9]
  .text              ro code  0x0021006c    0x8bc  BindingTable.o [1]
  .text              ro code  0x00210928     0xb4  bsp.o [5]
  .text              ro code  0x002109dc    0x120  lcd_srf06eb.o [5]
  .text              ro code  0x00210afc     0x4c  DebugTrace.o [1]
  .text              ro code  0x00210b48      0xc  memcpy.o [6]
  .text              ro code  0x00210b54     0xe4  lcd_dogm128_6.o [5]
  .text              ro code  0x00210c38    0x210  zmac.o [1]
  .text              ro code  0x00210e48   0x1126  osal_nv.o [1]
  .rodata            const    0x00211f6e      0x1  nwk_globals.o [1]
  .rodata            const    0x00211f6f      0x1  nwk_globals.o [1]
  .text              ro code  0x00211f70    0xa58  ZDSecMgr.o [1]
  .text              ro code  0x002129c8    0x1e4  sys_ctrl.o [9]
  .text              ro code  0x00212bac    0x102  MT.o [1]
  .rodata            const    0x00212cae      0x1  nwk_globals.o [1]
  .rodata            const    0x00212caf      0x1  nwk_globals.o [1]
  .text              ro code  0x00212cb0     0x38  hal_adc.o [1]
  .text              ro code  0x00212ce8    0x308  OSAL_Clock.o [1]
  .text              ro code  0x00212ff0    0x2f0  mac_radio.o [1]
  .text              ro code  0x002132e0    0x200  mac_pib.o [1]
  .text              ro code  0x002134e0    0x41c  AddrMgr.o [3]
  .text              ro code  0x002138fc     0x96  ssi.o [9]
  .rodata            const    0x00213992      0x1  nwk_globals.o [1]
  .rodata            const    0x00213993      0x1  nwk_globals.o [1]
  .text              ro code  0x00213994     0xd6  uart.o [9]
  .rodata            const    0x00213a6a      0x1  nwk_globals.o [1]
  .rodata            const    0x00213a6b      0x1  nwk_globals.o [1]
  .text              ro code  0x00213a6c    0x198  hal_sys_ctrl.o [1]
  .text              ro code  0x00213c04    0x424  nwk_bufs.o [3]
  .text              ro code  0x00214028    0x230  NLMEDE_CB.o [3]
  .text              ro code  0x00214258    0x548  ssp.o [3]
  .text              ro code  0x002147a0    0x264  nwk_globals.o [1]
  .text              ro code  0x00214a04    0x134  AssocList.o [3]
  .text              ro code  0x00214b38    0x144  APSMEDE_CB.o [3]
  .text              ro code  0x00214c7c    0x30c  bsp_key.o [5]
  .text              ro code  0x00214f88    0x204  mac_rx_onoff.o [1]
  .text              ro code  0x0021518c    0x170  mac_backoff_timer.o [1]
  .text              ro code  0x002152fc    0x5b0  mac_csp_tx.o [1]
  .text              ro code  0x002158ac    0xab0  mac_rx.o [1]
  .text              ro code  0x0021635c    0x2d0  zmac_cb.o [1]
  .text              ro code  0x0021662c    0x4a4  mac_tx.o [1]
  .text              ro code  0x00216ad0     0x68  mac_low_level.o [1]
  .text              ro code  0x00216b38    0x25c  MT_UART.o [1]
  .text              ro code  0x00216d94     0xc8  MT_AF.o [1]
  .text              ro code  0x00216e5c     0xc2  MT_DEBUG.o [1]
  .rodata            const    0x00216f1e      0x1  nwk_globals.o [1]
  .rodata            const    0x00216f1f      0x1  nwk_globals.o [1]
  .text              ro code  0x00216f20    0x148  reflecttrack.o [3]
  .text              ro code  0x00217068    0x228  aps_util.o [3]
  .text              ro code  0x00217290     0xf8  ZDConfig.o [1]
  .text              ro code  0x00217388    0x1ec  aes.o [9]
  .text              ro code  0x00217574    0x46c  mac_autopend.o [1]
  .text              ro code  0x002179e0    0x1b6  armcm3flashutil.o [1]
  .rodata            const    0x00217b96      0x1  nwk_globals.o [1]
  .rodata            const    0x00217b97      0x1  nwk_globals.o [1]
  .text              ro code  0x00217b98    0xcc0  MT_ZDO.o [1]
  .text              ro code  0x00218858     0x34  systick.o [9]
  .text              ro code  0x0021888c     0x74  mac_mem.o [1]
  .text              ro code  0x00218900    0x2b2  ssp_hash.o [3]
  .rodata            const    0x00218bb2      0x1  nwk_globals.o [1]
  .rodata            const    0x00218bb3      0x1  OSAL_SampleSw.o [1]
  .text              ro code  0x00218bb4    0x102  hal_ccm.o [1]
  .rodata            const    0x00218cb6      0x1  zcl_samplesw_data.o [1]
  .rodata            const    0x00218cb7      0x1  zcl_samplesw_data.o [1]
  .text              ro code  0x00218cb8    0x350  io_pin_int.o [5]
  .text              ro code  0x00219008     0x68  mac_sleep.o [1]
  .text              ro code  0x00219070     0x38  flash.o [9]
  .text              ro code  0x002190a8    0x3b0  ccm.o [9]
  .text              ro code  0x00219458     0x90  mac_radio_defs.o [1]
  .text              ro code  0x002194e8    0x290  ZMain.o [1]
  .text              ro code  0x00219778     0x2a  hal_systick.o [1]
  .rodata            const    0x002197a2      0x1  zcl_samplesw_data.o [1]
  .rodata            const    0x002197a3      0x1  ZDProfile.o [1]
  .rodata            const    0x002197a4    0x1d8  lcd_dogm128_6_alphabet.o [5]
  .rodata            const    0x0021997c    0x190  ZGlobals.o [1]
  .text              ro code  0x00219b0c     0xd4  packbits_init.o [8]
  .text              ro code  0x00219be0      0x6  abort.o [6]
  .text              ro code  0x00219be8     0x14  exit.o [10]
  .text              ro code  0x00219bfc     0xce  MT_APP.o [1]
  .rodata            const    0x00219ccc     0xcc  mac_beacon.o [4]
  .rodata            const    0x00219d98     0xb8  zcl.o [1]
  .rodata            const    0x00219e50     0xb4  zcl_samplesw_data.o [1]
  .rodata            const    0x00219f04     0x90  mac_pib.o [1]
  .rodata            const    0x00219f94     0x58  ZDProfile.o [1]
  .rodata            const    0x00219fec     0x4c  mac_pib.o [1]
  .text              ro code  0x0021a038     0x42  startup_ewarm.o [1]
  .text              ro code  0x0021a07a      0xc  cstartup_M.o [8]
  .text              ro code  0x0021a088     0x1a  cmain.o [8]
  .text              ro code  0x0021a0a2      0x4  low_level_init.o [6]
  .text              ro code  0x0021a0a8     0x28  data_init.o [8]
  .text              ro code  0x0021a0d0      0x4  exit.o [6]
  .text              ro code  0x0021a0d4      0xa  cexit.o [8]
  .rodata            const    0x0021a0e0     0x24  mac_radio_defs.o [1]
  .rodata            const    0x0021a104     0x24  OSAL_SampleSw.o [1]
  .iar.init_table    const    0x0021a128     0x34  - Linker created -
  .rodata            const    0x0021a15c     0x18  hal_lcd.o [1]
  .rodata            const    0x0021a174     0x18  zcl_samplesw.o [1]
  .rodata            const    0x0021a18c     0x14  hal_uart.o [1]
  .rodata            const    0x0021a1a0     0x14  zcl_samplesw.o [1]
  .rodata            const    0x0021a1b4     0x14  zcl_samplesw.o [1]
  .rodata            const    0x0021a1c8     0x14  zcl_samplesw.o [1]
  .rodata            const    0x0021a1dc     0x14  zcl_samplesw.o [1]
  .rodata            const    0x0021a1f0     0x14  zcl_samplesw.o [1]
  .rodata            const    0x0021a204     0x14  zcl_samplesw.o [1]
  .rodata            const    0x0021a218     0x14  zcl_samplesw.o [1]
  .rodata            const    0x0021a22c     0x14  zcl_samplesw.o [1]
  .rodata            const    0x0021a240     0x14  zcl_samplesw.o [1]
  .rodata            const    0x0021a254     0x14  zcl_samplesw.o [1]
  .rodata            const    0x0021a268     0x14  zcl_samplesw_data.o [1]
  .rodata            const    0x0021a27c     0x14  zcl_samplesw_data.o [1]
  .rodata            const    0x0021a290     0x14  zcl_samplesw_data.o [1]
  .rodata            const    0x0021a2a4     0x14  zmac_cb.o [1]
  .rodata            const    0x0021a2b8     0x14  ZMain.o [1]
  .rodata            const    0x0021a2cc     0x10  nwk_globals.o [1]
  .rodata            const    0x0021a2dc     0x10  nwk_globals.o [1]
  .rodata            const    0x0021a2ec     0x10  nwk_globals.o [1]
  .rodata            const    0x0021a2fc     0x10  nwk_globals.o [1]
  .rodata            const    0x0021a30c     0x10  zcl_samplesw.o [1]
  .rodata            const    0x0021a31c     0x10  zcl_samplesw.o [1]
  .rodata            const    0x0021a32c     0x10  zcl_samplesw.o [1]
  .rodata            const    0x0021a33c     0x10  zcl_samplesw.o [1]
  .rodata            const    0x0021a34c     0x10  zcl_samplesw.o [1]
  .rodata            const    0x0021a35c     0x10  zcl_samplesw.o [1]
  .rodata            const    0x0021a36c     0x10  zcl_samplesw.o [1]
  .rodata            const    0x0021a37c     0x10  zcl_samplesw.o [1]
  .rodata            const    0x0021a38c     0x10  zcl_samplesw.o [1]
  .rodata            const    0x0021a39c     0x10  zcl_samplesw.o [1]
  .rodata            const    0x0021a3ac     0x10  zcl_samplesw.o [1]
  .rodata            const    0x0021a3bc     0x10  ZDObject.o [1]
  .rodata            const    0x0021a3cc     0x10  ZDObject.o [1]
  .rodata            const    0x0021a3dc     0x10  ZDObject.o [1]
  .rodata            const    0x0021a3ec     0x10  ZDObject.o [1]
  .rodata            const    0x0021a3fc      0xc  nwk_globals.o [1]
  .rodata            const    0x0021a408      0xc  nwk_globals.o [1]
  .rodata            const    0x0021a414      0xc  nwk_globals.o [1]
  .rodata            const    0x0021a420      0xc  zcl_ha.o [1]
  .rodata            const    0x0021a42c      0xc  zcl_samplesw.o [1]
  .rodata            const    0x0021a438      0xc  zcl_samplesw.o [1]
  .rodata            const    0x0021a444      0xc  zcl_samplesw.o [1]
  .rodata            const    0x0021a450      0xc  ZDObject.o [1]
  .rodata            const    0x0021a45c      0xc  ZDObject.o [1]
  .text              ro code  0x0021a468      0xa  hal_sleep.o [1]
  .rodata            const    0x0021a474      0x8  mac_cfg.o [1]
  .rodata            const    0x0021a47c      0x8  MT_SYS.o [1]
  .rodata            const    0x0021a484      0x8  MT_VERSION.o [1]
  .rodata            const    0x0021a48c      0x8  nwk_globals.o [1]
  .rodata            const    0x0021a494      0x8  nwk_globals.o [1]
  .rodata            const    0x0021a49c      0x8  osal_nv.o [1]
  .rodata            const    0x0021a4a4      0x8  zcl_ha.o [1]
  .rodata            const    0x0021a4ac      0x8  zcl_ha.o [1]
  .rodata            const    0x0021a4b4      0x8  zcl_ha.o [1]
  .rodata            const    0x0021a4bc      0x8  zcl_samplesw.o [1]
  .rodata            const    0x0021a4c4      0x8  zcl_samplesw.o [1]
  .rodata            const    0x0021a4cc      0x8  zcl_samplesw.o [1]
  .rodata            const    0x0021a4d4      0x8  zcl_samplesw.o [1]
  .rodata            const    0x0021a4dc      0x8  zcl_samplesw.o [1]
  .rodata            const    0x0021a4e4      0x8  zcl_samplesw.o [1]
  .rodata            const    0x0021a4ec      0x8  zcl_samplesw.o [1]
  .rodata            const    0x0021a4f4      0x8  zcl_samplesw.o [1]
  .rodata            const    0x0021a4fc      0x8  zcl_samplesw.o [1]
  .rodata            const    0x0021a504      0x8  zcl_samplesw.o [1]
  .rodata            const    0x0021a50c      0x8  zcl_samplesw.o [1]
  .rodata            const    0x0021a514      0x8  zcl_samplesw.o [1]
  .rodata            const    0x0021a51c      0x8  ZDSecMgr.o [1]
  .rodata            const    0x0021a524      0x8  ZMain.o [1]
  .rodata            const    0x0021a52c      0x8  ZMain.o [1]
  .rodata            const    0x0021a534      0x4  mac_rx.o [1]
  .rodata            const    0x0021a538      0x4  nwk_globals.o [1]
  .rodata            const    0x0021a53c      0x4  zcl_samplesw.o [1]
  .rodata            const    0x0021a540      0x4  zcl_samplesw_data.o [1]
  .rodata            const    0x0021a544      0x4  zcl_samplesw_data.o [1]
  .rodata            const    0x0021a548      0x0  zero_init3.o [8]
  .rodata            const    0x0021a548      0x0  packbits_init.o [8]
  Initializer bytes  ro data  0x0021a548    0x10f  <for P2 s0>
                            - 0x0021a657  0x1a557

Absolute sections:                         0x3000
  .noinit            uninit   0x0027c800   0x3000  osal_nv.o [1]
                            - 0x0027f800   0x3000

"A2":                                         0xc
  .cca               const    0x0027ffd4      0xc  startup_ewarm.o [1]
                            - 0x0027ffe0      0xc

"A7":                                       0x100
  VTABLE             zero     0x20004000    0x100  interrupt.o [9]
                            - 0x20004100    0x100

"P2", part 1 of 3:                          0x238
  P2 s0                       0x20004100    0x238  <Init block>
    .data            inited   0x20004100     0x80  mac_beacon.o [4]
    .data            inited   0x20004180     0x5c  mac_beacon.o [4]
    .data            inited   0x200041dc     0x48  MT.o [1]
    .data            inited   0x20004224     0x30  zcl_samplesw.o [1]
    .data            inited   0x20004254     0x18  APS.o [3]
    .data            inited   0x2000426c     0x14  zcl_samplesw_data.o [1]
    .data            inited   0x20004280     0x14  zcl_samplesw_data.o [1]
    .data            inited   0x20004294     0x10  zcl_samplesw.o [1]
    .data            inited   0x200042a4     0x10  ZDApp.o [1]
    .data            inited   0x200042b4     0x10  nwk_util.o [3]
    .data            inited   0x200042c4      0xc  aps_frag.o [3]
    .data            inited   0x200042d0      0x8  reflecttrack.o [3]
    .data            inited   0x200042d8      0x4  osal_nv.o [1]
    .data            inited   0x200042dc      0x4  zcl_samplesw.o [1]
    .data            inited   0x200042e0      0x4  zcl_samplesw.o [1]
    .data            inited   0x200042e4      0x4  zcl_samplesw.o [1]
    .data            inited   0x200042e8      0x4  ZDProfile.o [1]
    .data            inited   0x200042ec      0x4  ZGlobals.o [1]
    .data            inited   0x200042f0      0x4  mac_beacon.o [4]
    .data            inited   0x200042f4      0x2  zcl_samplesw.o [1]
    .data            inited   0x200042f6      0x2  zcl_samplesw.o [1]
    .data            inited   0x200042f8      0x2  ZDApp.o [1]
    .data            inited   0x200042fa      0x2  ZGlobals.o [1]
    .data            inited   0x200042fc      0x2  ZGlobals.o [1]
    .data            inited   0x200042fe      0x2  ZGlobals.o [1]
    .data            inited   0x20004300      0x2  ZGlobals.o [1]
    .data            inited   0x20004302      0x2  ZGlobals.o [1]
    .data            inited   0x20004304      0x2  ZGlobals.o [1]
    .data            inited   0x20004306      0x2  ZGlobals.o [1]
    .data            inited   0x20004308      0x2  ZGlobals.o [1]
    .data            inited   0x2000430a      0x2  ZGlobals.o [1]
    .data            inited   0x2000430c      0x2  ZGlobals.o [1]
    .data            inited   0x2000430e      0x2  NLMEDE.o [3]
    .data            inited   0x20004310      0x2  reflecttrack.o [3]
    .data            inited   0x20004312      0x1  AF.o [1]
    .data            inited   0x20004313      0x1  mac_sleep.o [1]
    .data            inited   0x20004314      0x1  nwk_globals.o [1]
    .data            inited   0x20004315      0x1  OnBoard.o [1]
    .data            inited   0x20004316      0x1  OSAL.o [1]
    .data            inited   0x20004317      0x1  zcl.o [1]
    .data            inited   0x20004318      0x1  zcl_samplesw.o [1]
    .data            inited   0x20004319      0x1  zcl_samplesw.o [1]
    .data            inited   0x2000431a      0x1  zcl_samplesw_data.o [1]
    .data            inited   0x2000431b      0x1  ZDApp.o [1]
    .data            inited   0x2000431c      0x1  ZDApp.o [1]
    .data            inited   0x2000431d      0x1  ZGlobals.o [1]
    .data            inited   0x2000431e      0x1  ZGlobals.o [1]
    .data            inited   0x2000431f      0x1  ZGlobals.o [1]
    .data            inited   0x20004320      0x1  ZGlobals.o [1]
    .data            inited   0x20004321      0x1  ZGlobals.o [1]
    .data            inited   0x20004322      0x1  ZGlobals.o [1]
    .data            inited   0x20004323      0x1  ZGlobals.o [1]
    .data            inited   0x20004324      0x1  ZGlobals.o [1]
    .data            inited   0x20004325      0x1  ZGlobals.o [1]
    .data            inited   0x20004326      0x1  ZGlobals.o [1]
    .data            inited   0x20004327      0x1  ZGlobals.o [1]
    .data            inited   0x20004328      0x1  ZGlobals.o [1]
    .data            inited   0x20004329      0x1  ZGlobals.o [1]
    .data            inited   0x2000432a      0x1  ZGlobals.o [1]
    .data            inited   0x2000432b      0x1  ZGlobals.o [1]
    .data            inited   0x2000432c      0x1  ZGlobals.o [1]
    .data            inited   0x2000432d      0x1  ZGlobals.o [1]
    .data            inited   0x2000432e      0x1  ZGlobals.o [1]
    .data            inited   0x2000432f      0x1  ZGlobals.o [1]
    .data            inited   0x20004330      0x1  ZGlobals.o [1]
    .data            inited   0x20004331      0x1  ZGlobals.o [1]
    .data            inited   0x20004332      0x1  ZGlobals.o [1]
    .data            inited   0x20004333      0x1  ZGlobals.o [1]
    .data            inited   0x20004334      0x1  ZGlobals.o [1]
    .data            inited   0x20004335      0x1  ZGlobals.o [1]
    .data            inited   0x20004336      0x1  ZGlobals.o [1]
    .data            inited   0x20004337      0x1  ZGlobals.o [1]
                            - 0x20004338    0x238

"P2", part 2 of 3:                          0xe2c
  .bss               zero     0x20004338    0x400  lcd_dogm128_6.o [5]
  .bss               zero     0x20004738    0x1f8  nwk_globals.o [1]
  .bss               zero     0x20004930    0x140  nwk_globals.o [1]
  .bss               zero     0x20004a70     0x78  nwk.o [3]
  .bss               zero     0x20004ae8     0x70  nwk_globals.o [1]
  .bss               zero     0x20004b58     0x70  io_pin_int.o [5]
  .bss               zero     0x20004bc8     0x60  mac_beacon.o [4]
  .bss               zero     0x20004c28     0x50  nwk_globals.o [1]
  .bss               zero     0x20004c78     0x50  ZDProfile.o [1]
  .bss               zero     0x20004cc8     0x4c  mac_pib.o [1]
  .bss               zero     0x20004d14     0x38  nwk_globals.o [1]
  .bss               zero     0x20004d4c     0x38  mac_beacon.o [4]
  .bss               zero     0x20004d84     0x34  hal_led.o [1]
  .bss               zero     0x20004db8     0x34  ZDObject.o [1]
  .bss               zero     0x20004dec     0x2c  hal_uart.o [1]
  .bss               zero     0x20004e18     0x24  ZDSecMgr.o [1]
  .bss               zero     0x20004e3c     0x20  bsp_key.o [5]
  .bss               zero     0x20004e5c     0x20  mac_beacon.o [4]
  .bss               zero     0x20004e7c     0x20  io_pin_int.o [5]
  .bss               zero     0x20004e9c     0x1c  ZDApp.o [1]
  .bss               zero     0x20004eb8     0x18  nwk_globals.o [1]
  .bss               zero     0x20004ed0     0x14  APSMEDE.o [3]
  .bss               zero     0x20004ee4     0x14  aes.o [9]
  .bss               zero     0x20004ef8     0x10  zcl_ezmode.o [1]
  .bss               zero     0x20004f08     0x10  zcl_ezmode.o [1]
  .bss               zero     0x20004f18     0x10  zcl_samplesw.o [1]
  .bss               zero     0x20004f28     0x10  ZDConfig.o [1]
  .bss               zero     0x20004f38     0x10  APS.o [3]
  .bss               zero     0x20004f48      0xc  nwk_globals.o [1]
  .bss               zero     0x20004f54      0xc  osal_nv.o [1]
  .bss               zero     0x20004f60      0xc  osal_nv.o [1]
  .bss               zero     0x20004f6c      0xc  zcl_samplesw.o [1]
  .bss               zero     0x20004f78      0xc  ZDApp.o [1]
  .bss               zero     0x20004f84      0xc  ZDSecMgr.o [1]
  .bss               zero     0x20004f90      0xc  nwk_util.o [3]
  .bss               zero     0x20004f9c      0xc  nwk_util.o [3]
  .bss               zero     0x20004fa8      0xc  nwk_util.o [3]
  .bss               zero     0x20004fb4      0xc  NLMEDE.o [3]
  .bss               zero     0x20004fc0      0x8  OnBoard.o [1]
  .bss               zero     0x20004fc8      0x8  osal_nv.o [1]
  .bss               zero     0x20004fd0      0x8  OSAL_PwrMgr.o [1]
  .bss               zero     0x20004fd8      0x8  zcl_samplesw.o [1]
  .bss               zero     0x20004fe0      0x8  ZDApp.o [1]
  .bss               zero     0x20004fe8      0x8  ZGlobals.o [1]
  .bss               zero     0x20004ff0      0x8  ZGlobals.o [1]
  .bss               zero     0x20004ff8      0x8  ZGlobals.o [1]
  .bss               zero     0x20005000      0x8  AddrMgr.o [3]
  .bss               zero     0x20005008      0x8  ssp.o [3]
  .bss               zero     0x20005010      0x8  ssp.o [3]
  .bss               zero     0x20005018      0x4  AF.o [1]
  .bss               zero     0x2000501c      0x4  BindingTable.o [1]
  .bss               zero     0x20005020      0x4  BindingTable.o [1]
  .bss               zero     0x20005024      0x4  BindingTable.o [1]
  .bss               zero     0x20005028      0x4  BindingTable.o [1]
  .bss               zero     0x2000502c      0x4  BindingTable.o [1]
  .bss               zero     0x20005030      0x4  BindingTable.o [1]
  .bss               zero     0x20005034      0x4  BindingTable.o [1]
  .bss               zero     0x20005038      0x4  hal_aes.o [1]
  .bss               zero     0x2000503c      0x4  hal_key.o [1]
  .bss               zero     0x20005040      0x4  mac_backoff_timer.o [1]
  .bss               zero     0x20005044      0x4  mac_backoff_timer.o [1]
  .bss               zero     0x20005048      0x4  mac_mcu.o [1]
  .bss               zero     0x2000504c      0x4  mac_mcu.o [1]
  .bss               zero     0x20005050      0x4  mac_mcu.o [1]
  .bss               zero     0x20005054      0x4  mac_rx.o [1]
  .bss               zero     0x20005058      0x4  mac_rx.o [1]
  .bss               zero     0x2000505c      0x4  mac_rx.o [1]
  .bss               zero     0x20005060      0x4  MT_AF.o [1]
  .bss               zero     0x20005064      0x4  MT_AF.o [1]
  .bss               zero     0x20005068      0x4  MT_UART.o [1]
  .bss               zero     0x2000506c      0x4  MT_ZDO.o [1]
  .bss               zero     0x20005070      0x4  OSAL.o [1]
  .bss               zero     0x20005074      0x4  OSAL_Clock.o [1]
  .bss               zero     0x20005078      0x4  OSAL_Clock.o [1]
  .bss               zero     0x2000507c      0x4  osal_nv.o [1]
  .bss               zero     0x20005080      0x4  OSAL_SampleSw.o [1]
  .bss               zero     0x20005084      0x4  OSAL_Timers.o [1]
  .bss               zero     0x20005088      0x4  OSAL_Timers.o [1]
  .bss               zero     0x2000508c      0x4  zcl.o [1]
  .bss               zero     0x20005090      0x4  zcl.o [1]
  .bss               zero     0x20005094      0x4  zcl.o [1]
  .bss               zero     0x20005098      0x4  zcl.o [1]
  .bss               zero     0x2000509c      0x4  zcl.o [1]
  .bss               zero     0x200050a0      0x4  zcl_general.o [1]
  .bss               zero     0x200050a4      0x4  ZDApp.o [1]
  .bss               zero     0x200050a8      0x4  ZDApp.o [1]
  .bss               zero     0x200050ac      0x4  ZDConfig.o [1]
  .bss               zero     0x200050b0      0x4  ZDObject.o [1]
  .bss               zero     0x200050b4      0x4  ZDProfile.o [1]
  .bss               zero     0x200050b8      0x4  ZDSecMgr.o [1]
  .bss               zero     0x200050bc      0x4  zmac.o [1]
  .bss               zero     0x200050c0      0x4  zmac.o [1]
  .bss               zero     0x200050c4      0x4  zmac_cb.o [1]
  .bss               zero     0x200050c8      0x4  APSMEDE.o [3]
  .bss               zero     0x200050cc      0x4  aps_groups.o [3]
  .bss               zero     0x200050d0      0x4  APS.o [3]
  .bss               zero     0x200050d4      0x4  APS.o [3]
  .bss               zero     0x200050d8      0x4  APS.o [3]
  .bss               zero     0x200050dc      0x4  mac_beacon.o [4]
  .bss               zero     0x200050e0      0x4  nwk_bufs.o [3]
  .bss               zero     0x200050e4      0x4  nwk_bufs.o [3]
  .bss               zero     0x200050e8      0x4  NLMEDE.o [3]
  .bss               zero     0x200050ec      0x4  NLMEDE.o [3]
  .bss               zero     0x200050f0      0x2  zcl_ezmode.o [1]
  .bss               zero     0x200050f2      0x2  zcl_samplesw.o [1]
  .bss               zero     0x200050f4      0x2  zcl_samplesw.o [1]
  .bss               zero     0x200050f6      0x2  zcl_samplesw.o [1]
  .bss               zero     0x200050f8      0x2  zcl_samplesw.o [1]
  .bss               zero     0x200050fa      0x2  zcl_samplesw_data.o [1]
  .bss               zero     0x200050fc      0x2  NLMEDE.o [3]
  .bss               zero     0x200050fe      0x1  BindingTable.o [1]
  .bss               zero     0x200050ff      0x1  hal_assert.o [1]
  .bss               zero     0x20005100      0x1  hal_drivers.o [1]
  .bss               zero     0x20005101      0x1  hal_key.o [1]
  .bss               zero     0x20005102      0x1  hal_key.o [1]
  .bss               zero     0x20005103      0x1  hal_key.o [1]
  .bss               zero     0x20005104      0x1  hal_led.o [1]
  .bss               zero     0x20005105      0x1  hal_led.o [1]
  .bss               zero     0x20005106      0x1  hal_uart.o [1]
  .bss               zero     0x20005107      0x1  mac_autopend.o [1]
  .bss               zero     0x20005108      0x1  mac_autopend.o [1]
  .bss               zero     0x20005109      0x1  mac_mcu.o [1]
  .bss               zero     0x2000510a      0x1  mac_mcu.o [1]
  .bss               zero     0x2000510b      0x1  mac_radio.o [1]
  .bss               zero     0x2000510c      0x1  mac_radio.o [1]
  .bss               zero     0x2000510d      0x1  mac_radio.o [1]
  .bss               zero     0x2000510e      0x1  mac_radio.o [1]
  .bss               zero     0x2000510f      0x1  mac_rx.o [1]
  .bss               zero     0x20005110      0x1  mac_rx.o [1]
  .bss               zero     0x20005111      0x1  mac_rx.o [1]
  .bss               zero     0x20005112      0x1  mac_rx.o [1]
  .bss               zero     0x20005113      0x1  mac_rx.o [1]
  .bss               zero     0x20005114      0x1  mac_rx.o [1]
  .bss               zero     0x20005115      0x1  mac_rx.o [1]
  .bss               zero     0x20005116      0x1  mac_rx.o [1]
  .bss               zero     0x20005117      0x1  mac_rx.o [1]
  .bss               zero     0x20005118      0x1  mac_rx.o [1]
  .bss               zero     0x20005119      0x1  mac_rx.o [1]
  .bss               zero     0x2000511a      0x1  mac_rx_onoff.o [1]
  .bss               zero     0x2000511b      0x1  mac_rx_onoff.o [1]
  .bss               zero     0x2000511c      0x1  mac_tx.o [1]
  .bss               zero     0x2000511d      0x1  mac_tx.o [1]
  .bss               zero     0x2000511e      0x1  mac_tx.o [1]
  .bss               zero     0x2000511f      0x1  mac_tx.o [1]
  .bss               zero     0x20005120      0x1  mac_tx.o [1]
  .bss               zero     0x20005121      0x1  mac_tx.o [1]
  .bss               zero     0x20005122      0x1  mac_tx.o [1]
  .bss               zero     0x20005123      0x1  mac_tx.o [1]
  .bss               zero     0x20005124      0x1  mac_tx.o [1]
  .bss               zero     0x20005125      0x1  MT.o [1]
  .bss               zero     0x20005126      0x1  MT.o [1]
  .bss               zero     0x20005127      0x1  MT_TASK.o [1]
  .bss               zero     0x20005128      0x1  MT_UART.o [1]
  .bss               zero     0x20005129      0x1  MT_UART.o [1]
  .bss               zero     0x2000512a      0x1  MT_UART.o [1]
  .bss               zero     0x2000512b      0x1  MT_UART.o [1]
  .bss               zero     0x2000512c      0x1  MT_UART.o [1]
  .bss               zero     0x2000512d      0x1  OnBoard.o [1]
  .bss               zero     0x2000512e      0x1  OSAL_Memory.o [1]
  .bss               zero     0x2000512f      0x1  osal_nv.o [1]
  .bss               zero     0x20005130      0x1  zcl.o [1]
  .bss               zero     0x20005131      0x1  zcl.o [1]
  .bss               zero     0x20005132      0x1  zcl_ezmode.o [1]
  .bss               zero     0x20005133      0x1  zcl_ezmode.o [1]
  .bss               zero     0x20005134      0x1  zcl_ezmode.o [1]
  .bss               zero     0x20005135      0x1  zcl_ezmode.o [1]
  .bss               zero     0x20005136      0x1  zcl_ezmode.o [1]
  .bss               zero     0x20005137      0x1  zcl_ezmode.o [1]
  .bss               zero     0x20005138      0x1  zcl_general.o [1]
  .bss               zero     0x20005139      0x1  zcl_samplesw.o [1]
  .bss               zero     0x2000513a      0x1  zcl_samplesw.o [1]
  .bss               zero     0x2000513b      0x1  zcl_samplesw.o [1]
  .bss               zero     0x2000513c      0x1  zcl_samplesw.o [1]
  .bss               zero     0x2000513d      0x1  zcl_samplesw.o [1]
  .bss               zero     0x2000513e      0x1  zcl_samplesw.o [1]
  .bss               zero     0x2000513f      0x1  zcl_samplesw.o [1]
  .bss               zero     0x20005140      0x1  zcl_samplesw.o [1]
  .bss               zero     0x20005141      0x1  zcl_samplesw.o [1]
  .bss               zero     0x20005142      0x1  zcl_samplesw.o [1]
  .bss               zero     0x20005143      0x1  zcl_samplesw_data.o [1]
  .bss               zero     0x20005144      0x1  zcl_samplesw_data.o [1]
  .bss               zero     0x20005145      0x1  ZDApp.o [1]
  .bss               zero     0x20005146      0x1  ZDApp.o [1]
  .bss               zero     0x20005147      0x1  ZDApp.o [1]
  .bss               zero     0x20005148      0x1  ZDApp.o [1]
  .bss               zero     0x20005149      0x1  ZDApp.o [1]
  .bss               zero     0x2000514a      0x1  ZDApp.o [1]
  .bss               zero     0x2000514b      0x1  ZDApp.o [1]
  .bss               zero     0x2000514c      0x1  ZDApp.o [1]
  .bss               zero     0x2000514d      0x1  ZDObject.o [1]
  .bss               zero     0x2000514e      0x1  ZDProfile.o [1]
  .bss               zero     0x2000514f      0x1  ZDProfile.o [1]
  .bss               zero     0x20005150      0x1  ZGlobals.o [1]
  .bss               zero     0x20005151      0x1  ZGlobals.o [1]
  .bss               zero     0x20005152      0x1  ZGlobals.o [1]
  .bss               zero     0x20005153      0x1  ZGlobals.o [1]
  .bss               zero     0x20005154      0x1  ZGlobals.o [1]
  .bss               zero     0x20005155      0x1  ZGlobals.o [1]
  .bss               zero     0x20005156      0x1  ZGlobals.o [1]
  .bss               zero     0x20005157      0x1  ZGlobals.o [1]
  .bss               zero     0x20005158      0x1  zmac_cb.o [1]
  .bss               zero     0x20005159      0x1  nwk_util.o [3]
  .bss               zero     0x2000515a      0x1  nwk_util.o [3]
  .bss               zero     0x2000515b      0x1  nwk_util.o [3]
  .bss               zero     0x2000515c      0x1  rtg.o [3]
  .bss               zero     0x2000515d      0x1  nwk.o [3]
  .bss               zero     0x2000515e      0x1  nwk.o [3]
  .bss               zero     0x2000515f      0x1  nwk.o [3]
  .bss               zero     0x20005160      0x1  bsp.o [5]
                            - 0x20005161    0xe29

"P2", part 3 of 3:                         0x2004
  .noinit            uninit   0x20005164   0x1800  OSAL_Memory.o [1]
  .noinit            uninit   0x20006964    0x800  startup_ewarm.o [1]
  .noinit            uninit   0x20007164      0x4  OSAL_Memory.o [1]
                            - 0x20007168   0x2004


*******************************************************************************
*** INIT TABLE
***

          Address     Size
          -------     ----
Zero (__iar_zero_init3)
    2 destination ranges, total size 0xf29:
          0x20004000  0x100
          0x20004338  0xe29

Copy/packbits (__iar_packbits_init3)
    1 source range, total size 0x10f (47% of destination):
          0x0021a548  0x10f
    1 destination range, total size 0x238:
          0x20004100  0x238



*******************************************************************************
*** MODULE SUMMARY
***

    Module                    ro code  ro data  rw data  rw data
                                                          (abs)
    ------                    -------  -------  -------  -------
C:\Users\Nguyen\Documents\GitHub\FinalProject\Z-Stack Home 1.2.0\Projects\zstack\HomeAutomation\SampleSwitch - Copy\CC2538\EndDevice\Obj: [1]
    AF.o                        1 684        1        5
    BindingTable.o              2 236                29
    DebugTrace.o                   76
    MT.o                          258       35       74
    MT_AF.o                       200                 8
    MT_APP.o                      206
    MT_DEBUG.o                    194
    MT_SYS.o                    2 228       12
    MT_TASK.o                     372                 1
    MT_UART.o                     604                 9
    MT_VERSION.o                             8
    MT_ZDO.o                    3 264                 4
    OSAL.o                      1 956        1        5
    OSAL_Clock.o                  776                 8
    OSAL_Memory.o                 524             6 149
    OSAL_PwrMgr.o                  20                 8
    OSAL_SampleSw.o               136       37        4
    OSAL_Timers.o                 776                 8
    OnBoard.o                     270                10
    ZDApp.o                     5 296       10       84
    ZDConfig.o                    248                20
    ZDObject.o                  2 822       88       57
    ZDProfile.o                 3 652       91       90
    ZDSecMgr.o                  2 648        8       52
    ZGlobals.o                    516      424       83
    ZMain.o                       656       36
    armcm3flashutil.o             438
    hal_adc.o                      56
    hal_aes.o                      92                 4
    hal_assert.o                  668                 1
    hal_ccm.o                     258
    hal_drivers.o                 152                 1
    hal_key.o                     404                 7
    hal_lcd.o                     276       24
    hal_led.o                     876                54
    hal_sleep.o                    10
    hal_sys_ctrl.o                408
    hal_systick.o                  42
    hal_uart.o                  1 142       20       45
    mac_autopend.o              1 132                 2
    mac_backoff_timer.o           368                 8
    mac_cfg.o                                8
    mac_csp_tx.o                1 456
    mac_low_level.o               104
    mac_mcu.o                   1 784                14
    mac_mem.o                     116
    mac_pib.o                     512      220       76
    mac_radio.o                   752                 4
    mac_radio_defs.o              144       36
    mac_rx.o                    2 736        4       23
    mac_rx_onoff.o                516                 2
    mac_sleep.o                   104                 1
    mac_tx.o                    1 188                 9
    nwk_globals.o                 612      146    1 109
    osal_nv.o                   4 390       10       41   12 288
    saddr.o                       166
    startup_ewarm.o                66      268    2 048
    zcl.o                       7 786      184       23
    zcl_ezmode.o                  924                40
    zcl_general.o                 694                 5
    zcl_ha.o                      196       36
    zcl_samplesw.o              3 640      577      136
    zcl_samplesw_data.o                    271       45
    zmac.o                        528                 8
    zmac_cb.o                     720       20        5
    ------------------------------------------------------------
    Total:                     67 074    2 575   10 419   12 288

command line: [2]
    ------------------------------------------------------------
    Total:

EndDevice.a: [3]
    APS.o                       1 736       11       52
    APSMEDE.o                   2 760                24
    APSMEDE_CB.o                  324
    AddrMgr.o                   1 052                 8
    AssocList.o                   308
    NLMEDE.o                      984        1       24
    NLMEDE_CB.o                   560
    aps_frag.o                  1 596        6       12
    aps_groups.o                   88                 4
    aps_util.o                    552
    nwk.o                       2 860               123
    nwk_bufs.o                  1 060                 8
    nwk_util.o                  4 060        7       55
    reflecttrack.o                328        5       10
    rtg.o                       1 796                 1
    ssp.o                       1 352                16
    ssp_hash.o                    690
    ------------------------------------------------------------
    Total:                     22 106       30      337

TIMAC-CC2538.a: [4]
    mac_beacon.o                7 596      310      412
    ------------------------------------------------------------
    Total:                      7 596      310      412

bsp.lib: [5]
    acc_srf06eb.o                 412
    als_srf06eb.o                  72
    bsp.o                         180                 1
    bsp_key.o                     780                32
    bsp_led.o                      48
    io_pin_int.o                  848               144
    lcd_dogm128_6.o               228             1 024
    lcd_dogm128_6_alphabet.o               472
    lcd_srf06eb.o                 288
    ------------------------------------------------------------
    Total:                      2 856      472    1 201

dl7M_tln.a: [6]
    abort.o                         6
    exit.o                          4
    low_level_init.o                4
    memcpy.o                       12
    memset.o                       20
    strcat.o                       28
    ------------------------------------------------------------
    Total:                         74

m7M_tl.a: [7]
    ------------------------------------------------------------
    Total:

rt7M_tl.a: [8]
    ABImemclr.o                     6
    ABImemcpy_unaligned.o         118
    ABImemset.o                   102
    cexit.o                        10
    cmain.o                        26
    cstartup_M.o                   12
    data_init.o                    40
    packbits_init.o               212
    strcpy_unaligned.o             68
    strlen.o                       54
    zero_init3.o                   34
    ------------------------------------------------------------
    Total:                        682

sdriverlib.lib: [9]
    adc.o                          80
    aes.o                         492                20
    ccm.o                         944
    cpu.o                          16
    flash.o                        56
    gpio.o                        452
    interrupt.o                   592               256
    ioc.o                         740
    ssi.o                         150
    sys_ctrl.o                    484
    systick.o                      52
    uart.o                        214
    ------------------------------------------------------------
    Total:                      4 272               276

shb_l.a: [10]
    exit.o                         20
    ------------------------------------------------------------
    Total:                         20

    Gaps                            6        6
    Linker created                          52
----------------------------------------------------------------
    Grand Total:              104 686    3 445   12 645   12 288


*******************************************************************************
*** ENTRY LIST
***

Entry                      Address    Size  Type      Object
-----                      -------    ----  ----      ------
?main                   0x0021a089          Code  Gb  cmain.o [8]
AESECBCheckResult       0x002174e1    0x16  Code  Gb  aes.o [9]
AESECBGetResult         0x002174f7    0x5a  Code  Gb  aes.o [9]
AESECBStart             0x00217459    0x88  Code  Gb  aes.o [9]
AESLoadKey              0x00217389    0xce  Code  Gb  aes.o [9]
AF_DataRequest          0x00203b21   0x208  Code  Gb  AF.o [1]
AF_DataRequestDiscoverRoute
                        0x20004312     0x1  Data  Gb  AF.o [1]
AIB_apsTrustCenterAddress
                        0x20004258     0x4  Data  Gb  APS.o [3]
AIB_apsUseExtendedPANID
                        0x20004264     0x8  Data  Gb  APS.o [3]
AIB_apsUseInsecureJoin  0x20004256     0x1  Data  Gb  APS.o [3]
APSDE_DataCnf           0x00214b51     0xa  Code  Gb  APSMEDE_CB.o [3]
APSDE_DataConfirm       0x00214b39    0x18  Code  Gb  APSMEDE_CB.o [3]
APSDE_DataIndication    0x00214b5b    0xa0  Code  Gb  APSMEDE_CB.o [3]
APSDE_DataReq           0x00209d11   0x1da  Code  Gb  APSMEDE.o [3]
APSDE_DataReqMTU        0x00209eeb    0x28  Code  Gb  APSMEDE.o [3]
APSDE_FrameAlloc        0x0020a5dd   0x114  Code  Gb  APSMEDE.o [3]
APSDE_FrameHdrSet       0x0020a3f1    0xee  Code  Gb  APSMEDE.o [3]
APSDE_FrameSend         0x0020a6f1    0x42  Code  Gb  APSMEDE.o [3]
APSDE_ParseMsg          0x00217069   0x102  Code  Gb  aps_util.o [3]
APSF_AllocRxObj         0x0020e525    0xf6  Code  Lc  aps_frag.o [3]
APSF_FindObj            0x0020e217    0x2a  Code  Lc  aps_frag.o [3]
APSF_FreeObj            0x0020e241    0x28  Code  Lc  aps_frag.o [3]
APSF_IncomingData       0x0020e61b   0x136  Code  Lc  aps_frag.o [3]
APSF_Init               0x0020e1f1    0x26  Code  Gb  aps_frag.o [3]
APSF_ObjList            0x200042c8     0x4  Data  Lc  aps_frag.o [3]
APSF_ProcessAck         0x0020e4a1    0x84  Code  Gb  aps_frag.o [3]
APSF_ProcessEvent       0x0020e75b    0xb0  Code  Gb  aps_frag.o [3]
APSF_SendFragmented     0x0020e269   0x134  Code  Gb  aps_frag.o [3]
APSF_SendOsalMsg        0x0020e751     0xa  Code  Gb  aps_frag.o [3]
APSF_TxNextFrame        0x0020e39d   0x102  Code  Lc  aps_frag.o [3]
APSF_taskID             0x200042c4     0x1  Data  Gb  aps_frag.o [3]
APSME_BindRequest       0x00209f13    0x26  Code  Gb  APSMEDE.o [3]
APSME_CmdPkt            0x0020a599    0x3e  Code  Gb  APSMEDE.o [3]
APSME_CmdPktCM_ED       0x0020a56b    0x14  Code  Gb  APSMEDE.o [3]
APSME_CmdPktHook        0x20004ee0     0x4  Data  Gb  APSMEDE.o [3]
APSME_CmdTransportKey   0x0020a4e5    0x86  Code  Gb  APSMEDE.o [3]
APSME_FrameSecApplyCM   0x0020a381    0x6c  Code  Gb  APSMEDE.o [3]
APSME_FrameSecApplyExtCM
                        0x0020a3ed     0x4  Code  Gb  APSMEDE.o [3]
APSME_FrameSecApplyExtHook
                        0x20004ed8     0x4  Data  Gb  APSMEDE.o [3]
APSME_FrameSecApplyHook
                        0x20004ed4     0x4  Data  Gb  APSMEDE.o [3]
APSME_FrameSecKeySetup  0x0020a20b    0x76  Code  Gb  APSMEDE.o [3]
APSME_FrameSecKeySync   0x0020a1a9    0x62  Code  Gb  APSMEDE.o [3]
APSME_FrameSecRemoveCM  0x0020a305    0x7c  Code  Gb  APSMEDE.o [3]
APSME_FrameSecRemoveHook
                        0x20004edc     0x4  Data  Gb  APSMEDE.o [3]
APSME_FrameSecSetupCM   0x0020a281    0x84  Code  Gb  APSMEDE.o [3]
APSME_FrameSecSetupHook
                        0x20004ed0     0x4  Data  Gb  APSMEDE.o [3]
APSME_FrameSecurityRemove
                        0x0020a739    0x20  Code  Gb  APSMEDE.o [3]
APSME_GetRequest        0x00209f4d    0x4c  Code  Gb  APSMEDE.o [3]
APSME_HoldDataRequests  0x0020e11d    0x2a  Code  Gb  APS.o [3]
APSME_IsDefaultTCLK     0x0021277d    0x10  Code  Gb  ZDSecMgr.o [1]
APSME_IsDistributedSecurity
                        0x0020a7a5     0xc  Code  Gb  APSMEDE.o [3]
APSME_LinkKeyLoad       0x0020a12b    0x7e  Code  Gb  APSMEDE.o [3]
APSME_LinkKeyNVIdGet    0x00212493    0x2a  Code  Gb  ZDSecMgr.o [1]
APSME_LinkKeySet        0x0021238d    0xa4  Code  Gb  ZDSecMgr.o [1]
APSME_LinkKeySync       0x0020a083    0x5e  Code  Gb  APSMEDE.o [3]
APSME_LookupExtAddr     0x00209fb5    0x3e  Code  Gb  APSMEDE.o [3]
APSME_LookupNwkAddr     0x00209ff3    0x2e  Code  Gb  APSMEDE.o [3]
APSME_NwkKeyLoad        0x0020a0e1    0x4a  Code  Gb  APSMEDE.o [3]
APSME_NwkKeySync        0x0020a059    0x2a  Code  Gb  APSMEDE.o [3]
APSME_SecurityCM_ED     0x0020a78d    0x18  Code  Gb  APSMEDE.o [3]
APSME_SetRequest        0x00209f99    0x1c  Code  Gb  APSMEDE.o [3]
APSME_SwitchKeyInd      0x00214c49    0x28  Code  Gb  APSMEDE_CB.o [3]
APSME_TCLinkKeyInit     0x002124bd    0xb6  Code  Gb  ZDSecMgr.o [1]
APSME_TCLinkKeyLoad     0x00212689    0xf4  Code  Gb  ZDSecMgr.o [1]
APSME_TCLinkKeySync     0x00212579   0x110  Code  Gb  ZDSecMgr.o [1]
APSME_TransportKeyInd   0x00214bfb    0x40  Code  Gb  APSMEDE_CB.o [3]
APSME_UnBindRequest     0x00209f39    0x14  Code  Gb  APSMEDE.o [3]
APS_AllowDataRequests   0x20004257     0x1  Data  Gb  APS.o [3]
APS_CmdInd              0x0020dc41    0x60  Code  Gb  APS.o [3]
APS_Counter             0x20004255     0x1  Data  Gb  APS.o [3]
APS_DataConfirmReflect  0x0020dd85    0x18  Code  Lc  APS.o [3]
APS_DataIndReflect      0x0020dd9d   0x11c  Code  Lc  APS.o [3]
APS_GetBind             0x0020dcdd    0xa8  Code  Lc  APS.o [3]
APS_Init                0x0020db4d    0x28  Code  Gb  APS.o [3]
APS_IsDuplicate         0x0020e147    0x82  Code  Lc  APS.o [3]
APS_ReReflect           0x0020e001    0x78  Code  Lc  APS.o [3]
APS_Reflect             0x0020debf   0x142  Code  Lc  APS.o [3]
APS_ReflectMonitor      0x0020e079    0x58  Code  Lc  APS.o [3]
APS_ReflectorInit       0x0020db29    0x24  Code  Gb  APS.o [3]
APS_TaskID              0x20004254     0x1  Data  Gb  APS.o [3]
APS_UnBind              0x0020dca5    0x38  Code  Lc  APS.o [3]
APS_event_loop          0x0020db75    0xc6  Code  Gb  APS.o [3]
AddrMgrEntryAdd         0x0021354d    0x58  Code  Lc  AddrMgr.o [3]
AddrMgrEntryAddRef      0x0021369b    0x3c  Code  Gb  AddrMgr.o [3]
AddrMgrEntryData        0x20005004     0x4  Data  Lc  AddrMgr.o [3]
AddrMgrEntryGet         0x0021378f    0x46  Code  Gb  AddrMgr.o [3]
AddrMgrEntryLookupExt   0x00213735    0x5a  Code  Gb  AddrMgr.o [3]
AddrMgrEntryLookupNwk   0x002136d7    0x5e  Code  Gb  AddrMgr.o [3]
AddrMgrEntryRelease     0x00213667    0x34  Code  Gb  AddrMgr.o [3]
AddrMgrEntrySet         0x00213505    0x48  Code  Lc  AddrMgr.o [3]
AddrMgrEntryTotal       0x20005000     0x2  Data  Lc  AddrMgr.o [3]
AddrMgrEntryUpdate      0x002137d5   0x124  Code  Gb  AddrMgr.o [3]
AddrMgrEntryValidate    0x002134e1    0x24  Code  Lc  AddrMgr.o [3]
AddrMgrExtAddrEqual     0x002135f7    0x18  Code  Gb  AddrMgr.o [3]
AddrMgrExtAddrLookup    0x0021360f    0x28  Code  Gb  AddrMgr.o [3]
AddrMgrExtAddrSet       0x002135cf     0xe  Code  Gb  AddrMgr.o [3]
AddrMgrExtAddrValid     0x002135dd    0x1a  Code  Gb  AddrMgr.o [3]
AddrMgrInit             0x002135a5    0x2a  Code  Gb  AddrMgr.o [3]
AddrMgrNwkAddrLookup    0x00213637    0x30  Code  Gb  AddrMgr.o [3]
AddrMgrWriteNVRequest   0x0020f901     0x2  Code  Gb  ZDApp.o [1]
App_TaskID              0x20005128     0x1  Data  Gb  MT_UART.o [1]
ApsLinkKeyFrmCntr       0x20004e18    0x24  Data  Gb  ZDSecMgr.o [1]
AssocChangeNwkAddr      0x00214a05    0x62  Code  Gb  AssocList.o [3]
AssocCnfFailStr         0x0021a2ec    0x10  Data  Gb  nwk_globals.o [1]
AssocCnfStr             0x0021a3fc     0xc  Data  Gb  nwk_globals.o [1]
AssocGetWithAddress     0x00214a9b    0x74  Code  Gb  AssocList.o [3]
AssocGetWithShort       0x00214a67    0x34  Code  Gb  AssocList.o [3]
AssociatedDevList       0x20004738   0x1f8  Data  Gb  nwk_globals.o [1]
BindInitNV              0x00210659    0x2e  Code  Gb  BindingTable.o [1]
BindRestoreFromNV       0x002106a1    0x46  Code  Gb  BindingTable.o [1]
BindSetDefaultNV        0x00210689    0x16  Code  Gb  BindingTable.o [1]
BindWriteNV             0x002106e9    0x6e  Code  Gb  BindingTable.o [1]
BindingTable            0x20004d14    0x38  Data  Gb  nwk_globals.o [1]
CCMAuthEncryptCheckResult
                        0x002191c5    0x16  Code  Gb  ccm.o [9]
CCMAuthEncryptGetResult
                        0x002191dd    0x88  Code  Gb  ccm.o [9]
CCMAuthEncryptStart     0x002190a9   0x11c  Code  Gb  ccm.o [9]
CCMInvAuthDecryptCheckResult
                        0x00219379     0x2  Code  Gb  ccm.o [9]
CCMInvAuthDecryptGetResult
                        0x0021937d    0xae  Code  Gb  ccm.o [9]
CCMInvAuthDecryptStart  0x00219265   0x114  Code  Gb  ccm.o [9]
CPUcpsid                0x0020b0cd     0x8  Code  Gb  cpu.o [9]
CPUcpsie                0x0020b0d5     0x8  Code  Gb  cpu.o [9]
EndDeviceStr            0x0021a408     0xc  Data  Gb  nwk_globals.o [1]
EnergyLevelStr          0x0021a2fc    0x10  Data  Gb  nwk_globals.o [1]
FSC_Token               0x2000512b     0x1  Data  Gb  MT_UART.o [1]
FaultISR                0x0021a077     0x2  Code  Lc  startup_ewarm.o [1]
FlashCacheModeSet       0x00219091    0x12  Code  Gb  flash.o [9]
FlashMainPageErase      0x00219071    0x10  Code  Gb  flash.o [9]
GPIODirModeSet          0x002046ff    0x28  Code  Gb  gpio.o [9]
GPIOGetIntNumber        0x002046d1    0x2e  Code  Gb  gpio.o [9]
GPIOIntTypeSet          0x00204727    0x38  Code  Gb  gpio.o [9]
GPIOIntWakeupDisable    0x00204871     0xc  Code  Gb  gpio.o [9]
GPIOIntWakeupEnable     0x00204867     0xa  Code  Gb  gpio.o [9]
GPIOPinIntClear         0x00204789     0x6  Code  Gb  gpio.o [9]
GPIOPinIntDisable       0x0020476b     0xe  Code  Gb  gpio.o [9]
GPIOPinIntEnable        0x0020475f     0xc  Code  Gb  gpio.o [9]
GPIOPinIntStatus        0x00204779    0x10  Code  Gb  gpio.o [9]
GPIOPinRead             0x002047a9     0x6  Code  Gb  gpio.o [9]
GPIOPinTypeGPIOInput    0x002047b5     0xa  Code  Gb  gpio.o [9]
GPIOPinTypeGPIOOutput   0x002047bf     0xa  Code  Gb  gpio.o [9]
GPIOPinTypeSSI          0x002047c9     0x2  Code  Gb  gpio.o [9]
GPIOPinTypeTimer        0x002047e3     0x4  Code  Gb  gpio.o [9]
GPIOPinTypeUARTInput    0x002047e7     0x4  Code  Gb  gpio.o [9]
GPIOPinTypeUARTOutput   0x002047eb    0x1a  Code  Gb  gpio.o [9]
GPIOPinWrite            0x002047af     0x6  Code  Gb  gpio.o [9]
GPIOPortIntRegister     0x0020478f    0x1a  Code  Gb  gpio.o [9]
GPIOPowIntClear         0x0020483b    0x22  Code  Gb  gpio.o [9]
GPIOPowIntTypeSet       0x00204805    0x36  Code  Gb  gpio.o [9]
GetBindingTableEntry    0x002108a9    0x4a  Code  Gb  BindingTable.o [1]
HalAdcCheckVdd          0x00212cb9    0x22  Code  Gb  hal_adc.o [1]
HalAdcRead              0x00212cb1     0x8  Code  Gb  hal_adc.o [1]
HalAesInit              0x0020fcdd    0x1a  Code  Gb  hal_aes.o [1]
HalDriverInit           0x0020463f    0x18  Code  Gb  hal_drivers.o [1]
HalKeyConfig            0x0020a8cb    0x6a  Code  Gb  hal_key.o [1]
HalKeyInit              0x0020a841     0xe  Code  Gb  hal_key.o [1]
HalKeyPoll              0x0020a955    0x3c  Code  Gb  hal_key.o [1]
HalKeyRead              0x0020a935    0x20  Code  Gb  hal_key.o [1]
HalLcdInit              0x00205e69     0xe  Code  Gb  hal_lcd.o [1]
HalLcdWriteScreen       0x00205eb3    0x18  Code  Gb  hal_lcd.o [1]
HalLcdWriteString       0x00205e77    0x18  Code  Gb  hal_lcd.o [1]
HalLcdWriteStringValue  0x00205ecb    0x5a  Code  Gb  hal_lcd.o [1]
HalLcdWriteValue        0x00205e8f    0x24  Code  Gb  hal_lcd.o [1]
HalLcd_HW_WriteLine     0x00205f25    0x4c  Code  Gb  hal_lcd.o [1]
HalLedBlink             0x002063f9    0xd2  Code  Gb  hal_led.o [1]
HalLedInit              0x00206355    0x16  Code  Gb  hal_led.o [1]
HalLedOnOff             0x00206603    0xa8  Code  Gb  hal_led.o [1]
HalLedSet               0x0020636b    0x8e  Code  Gb  hal_led.o [1]
HalLedState             0x20005104     0x1  Data  Lc  hal_led.o [1]
HalLedStatusControl     0x20004d84    0x34  Data  Lc  hal_led.o [1]
HalLedUpdate            0x002064cb   0x138  Code  Gb  hal_led.o [1]
HalUARTClose            0x0020825f     0xe  Code  Gb  hal_uart.o [1]
HalUARTCloseIsr         0x0020807b    0x28  Code  Gb  hal_uart.o [1]
HalUARTInit             0x0020823d     0x8  Code  Gb  hal_uart.o [1]
HalUARTInitIsr          0x00207e1d    0x3e  Code  Gb  hal_uart.o [1]
HalUARTOpen             0x00208245    0x12  Code  Gb  hal_uart.o [1]
HalUARTOpenIsr          0x00207e5b   0x15c  Code  Gb  hal_uart.o [1]
HalUARTPoll             0x00208257     0x8  Code  Gb  hal_uart.o [1]
HalUARTPollIsr          0x00207fb7    0xc4  Code  Gb  hal_uart.o [1]
HalUARTRead             0x0020826d    0x18  Code  Gb  hal_uart.o [1]
HalUARTReadIsr          0x002080a3    0x70  Code  Gb  hal_uart.o [1]
Hal_Init                0x00204639     0x6  Code  Gb  hal_drivers.o [1]
Hal_KeyIntEnable        0x20005103     0x1  Data  Gb  hal_key.o [1]
Hal_ProcessEvent        0x00204657    0x6a  Code  Gb  hal_drivers.o [1]
Hal_ProcessPoll         0x002046c9     0x8  Code  Gb  hal_drivers.o [1]
Hal_TaskID              0x20005100     0x1  Data  Gb  hal_drivers.o [1]
Hal_UART_RxBufLen       0x00208285     0xe  Code  Gb  hal_uart.o [1]
Hal_UART_RxBufLenIsr    0x00208113    0x22  Code  Gb  hal_uart.o [1]
IOCPadConfigSet         0x0020fe9b    0x68  Code  Gb  ioc.o [9]
IOCPinConfigPeriphInput
                        0x0020fda1    0xfa  Code  Gb  ioc.o [9]
IOCPinConfigPeriphOutput
                        0x0020fd39    0x68  Code  Gb  ioc.o [9]
InStream_Read           0x00219b0d    0x22  Code  Lc  packbits_init.o [8]
InitBindingTable        0x0021006d    0x6c  Code  Gb  BindingTable.o [1]
InitBoard               0x00203ed5    0x3a  Code  Gb  OnBoard.o [1]
IntAltMapEnable         0x00204191     0xc  Code  Gb  interrupt.o [9]
IntDefaultHandler       0x0021a079     0x2  Code  Lc  startup_ewarm.o [1]
IntDisable              0x002040fd    0x58  Code  Gb  interrupt.o [9]
IntEnable               0x002040a5    0x58  Code  Gb  interrupt.o [9]
IntMasterDisable        0x0020404d     0x6  Code  Gb  interrupt.o [9]
IntMasterEnable         0x00204045     0x8  Code  Gb  interrupt.o [9]
IntPendClear            0x00204155    0x3c  Code  Gb  interrupt.o [9]
IntPrioritySet          0x00204081    0x24  Code  Gb  interrupt.o [9]
IntRegister             0x0020405b    0x26  Code  Gb  interrupt.o [9]
LEN_Token               0x2000512a     0x1  Data  Gb  MT_UART.o [1]
MAC_CbackCheckPending   0x002165c1     0x4  Code  Gb  zmac_cb.o [1]
MAC_CbackEvent          0x0021635d   0x264  Code  Gb  zmac_cb.o [1]
MAC_CbackQueryRetransmit
                        0x002165c5     0x4  Code  Gb  zmac_cb.o [1]
MAC_Init                0x0020c879    0x1e  Code  Gb  mac_beacon.o [4]
MAC_InitDevice          0x0020bcff    0x2c  Code  Gb  mac_beacon.o [4]
MAC_McpsDataAlloc       0x0020b771    0x1a  Code  Gb  mac_beacon.o [4]
MAC_McpsDataReq         0x0020b665   0x10c  Code  Gb  mac_beacon.o [4]
MAC_MlmeAssociateReq    0x0020bd2d     0x8  Code  Gb  mac_beacon.o [4]
MAC_MlmeGetReq          0x0021332f    0x52  Code  Gb  mac_pib.o [1]
MAC_MlmePollReq         0x0020bd35     0x6  Code  Gb  mac_beacon.o [4]
MAC_MlmeResetReq        0x0020c7b9    0xb0  Code  Gb  mac_beacon.o [4]
MAC_MlmeScanReq         0x0020cc07     0x8  Code  Gb  mac_beacon.o [4]
MAC_MlmeSetReq          0x00213381   0x150  Code  Gb  mac_pib.o [1]
MAC_MlmeSyncReq         0x0020c871     0x8  Code  Gb  mac_beacon.o [4]
MAC_SrcMatchAckAllPending
                        0x002176bb    0x2e  Code  Gb  mac_autopend.o [1]
MAC_SrcMatchAddEntry    0x002175c7    0xb4  Code  Gb  mac_autopend.o [1]
MAC_SrcMatchCheckAllPending
                        0x002176e9    0x10  Code  Gb  mac_autopend.o [1]
MAC_SrcMatchCheckResult
                        0x002176f9    0x1c  Code  Gb  mac_autopend.o [1]
MAC_SrcMatchDeleteEntry
                        0x0021767b    0x40  Code  Gb  mac_autopend.o [1]
MAC_SrcMatchEnable      0x00217575    0x52  Code  Gb  mac_autopend.o [1]
MTProcessAppRspMsg      0x00212c99    0x16  Code  Gb  MT.o [1]
MTVersionString         0x0021a484     0x8  Data  Gb  MT_VERSION.o [1]
MT_AfExec               0x00216d95    0xba  Code  Gb  MT_AF.o [1]
MT_AppCommandProcessing
                        0x00219bfd    0x2c  Code  Gb  MT_APP.o [1]
MT_AppMsg               0x00219c29    0x82  Code  Gb  MT_APP.o [1]
MT_AppUserCmd           0x00219cab    0x20  Code  Gb  MT_APP.o [1]
MT_BuildAndSendZToolResponse
                        0x00212bcb    0x44  Code  Gb  MT.o [1]
MT_Init                 0x00212bad    0x1e  Code  Gb  MT.o [1]
MT_ProcessDebugMsg      0x00216e5d    0x98  Code  Gb  MT_DEBUG.o [1]
MT_ProcessDebugStr      0x00216ef5    0x2a  Code  Gb  MT_DEBUG.o [1]
MT_ProcessEvent         0x0020d9d9    0xa6  Code  Gb  MT_TASK.o [1]
MT_ProcessIncoming      0x00212c0f    0x7a  Code  Gb  MT.o [1]
MT_ProcessIncomingCommand
                        0x0020da7f    0x64  Code  Lc  MT_TASK.o [1]
MT_SysAdcRead           0x00206dd5    0x86  Code  Gb  MT_SYS.o [1]
MT_SysCommandProcessing
                        0x002068c5    0xee  Code  Gb  MT_SYS.o [1]
MT_SysGetExtAddr        0x00206a43    0x1a  Code  Gb  MT_SYS.o [1]
MT_SysGetUtcTime        0x00207073    0x86  Code  Gb  MT_SYS.o [1]
MT_SysGpio              0x00206e5b    0xa8  Code  Gb  MT_SYS.o [1]
MT_SysOsalEventId       0x0021a47c     0x8  Data  Gb  MT_SYS.o [1]
MT_SysOsalNVDelete      0x00206c97    0x3a  Code  Gb  MT_SYS.o [1]
MT_SysOsalNVItemInit    0x00206c15    0x82  Code  Gb  MT_SYS.o [1]
MT_SysOsalNVLength      0x00206cd1    0x38  Code  Gb  MT_SYS.o [1]
MT_SysOsalNVRead        0x00206a5d   0x142  Code  Gb  MT_SYS.o [1]
MT_SysOsalNVWrite       0x00206b9f    0x76  Code  Gb  MT_SYS.o [1]
MT_SysOsalStartTimer    0x00206d09    0x58  Code  Gb  MT_SYS.o [1]
MT_SysOsalStopTimer     0x00206d61    0x4e  Code  Gb  MT_SYS.o [1]
MT_SysOsalTimerExpired  0x00207161    0x18  Code  Gb  MT_SYS.o [1]
MT_SysPing              0x002069c9    0x26  Code  Gb  MT_SYS.o [1]
MT_SysRandom            0x00206daf    0x26  Code  Gb  MT_SYS.o [1]
MT_SysReset             0x002069b3    0x16  Code  Gb  MT_SYS.o [1]
MT_SysResetInd          0x00207129    0x24  Code  Gb  MT_SYS.o [1]
MT_SysSetExtAddr        0x00206a07    0x3c  Code  Gb  MT_SYS.o [1]
MT_SysSetTxPower        0x002070f9    0x30  Code  Gb  MT_SYS.o [1]
MT_SysSetUtcTime        0x00206f65   0x10e  Code  Gb  MT_SYS.o [1]
MT_SysStackTune         0x00206f03    0x62  Code  Gb  MT_SYS.o [1]
MT_SysVersion           0x002069ef    0x18  Code  Gb  MT_SYS.o [1]
MT_TaskID               0x20005127     0x1  Data  Gb  MT_TASK.o [1]
MT_TaskInit             0x0020d9b5    0x20  Code  Gb  MT_TASK.o [1]
MT_TransportAlloc       0x0020dae3    0x20  Code  Gb  MT_TASK.o [1]
MT_TransportSend        0x0020db03    0x26  Code  Gb  MT_TASK.o [1]
MT_UartCalcFCS          0x00216b8b    0x24  Code  Gb  MT_UART.o [1]
MT_UartInit             0x00216b39    0x4c  Code  Gb  MT_UART.o [1]
MT_UartProcessZToolData
                        0x00216bb1   0x1ca  Code  Gb  MT_UART.o [1]
MT_UartRegisterTaskID   0x00216b85     0x6  Code  Gb  MT_UART.o [1]
MT_ZdoActiveEpRequest   0x00217e5d    0x4c  Code  Gb  MT_ZDO.o [1]
MT_ZdoBeaconIndCB       0x0021865d   0x12a  Code  Gb  MT_ZDO.o [1]
MT_ZdoBindRequest       0x002182b1    0xc6  Code  Gb  MT_ZDO.o [1]
MT_ZdoCommandProcessing
                        0x00217b9b   0x128  Code  Gb  MT_ZDO.o [1]
MT_ZdoComplexDescRequest
                        0x00217fc9    0x4c  Code  Gb  MT_ZDO.o [1]
MT_ZdoEndDevAnnce       0x00218061    0x3c  Code  Gb  MT_ZDO.o [1]
MT_ZdoEndDevBindRequest
                        0x0021817f   0x132  Code  Gb  MT_ZDO.o [1]
MT_ZdoEndDeviceTimeoutRequest
                        0x0021813b    0x44  Code  Gb  MT_ZDO.o [1]
MT_ZdoIEEEAddrRequest   0x00217d11    0x5c  Code  Gb  MT_ZDO.o [1]
MT_ZdoInit              0x00217b99     0x2  Code  Gb  MT_ZDO.o [1]
MT_ZdoJoinCnfCB         0x00218789    0x40  Code  Gb  MT_ZDO.o [1]
MT_ZdoJoinReq           0x002185db    0x5a  Code  Gb  MT_ZDO.o [1]
MT_ZdoMatchDescRequest  0x00217ea9   0x120  Code  Gb  MT_ZDO.o [1]
MT_ZdoNWKAddressRequest
                        0x00217cc3    0x4e  Code  Gb  MT_ZDO.o [1]
MT_ZdoNetworkDiscoveryReq
                        0x0021858d    0x4e  Code  Gb  MT_ZDO.o [1]
MT_ZdoNodeDescRequest   0x00217d6d    0x4c  Code  Gb  MT_ZDO.o [1]
MT_ZdoNwkAddrOfInterestReq
                        0x002184d7    0x82  Code  Gb  MT_ZDO.o [1]
MT_ZdoNwkDiscoveryCnfCB
                        0x00218635    0x26  Code  Gb  MT_ZDO.o [1]
MT_ZdoPowerDescRequest  0x00217db9    0x4c  Code  Gb  MT_ZDO.o [1]
MT_ZdoRegisterForZDOMsg
                        0x002187c9    0x42  Code  Gb  MT_ZDO.o [1]
MT_ZdoRemoveRegisteredCB
                        0x0021880b    0x42  Code  Gb  MT_ZDO.o [1]
MT_ZdoSendData          0x0021843d    0x9a  Code  Gb  MT_ZDO.o [1]
MT_ZdoServiceDiscRequest
                        0x00218105    0x36  Code  Gb  MT_ZDO.o [1]
MT_ZdoSimpleDescRequest
                        0x00217e05    0x58  Code  Gb  MT_ZDO.o [1]
MT_ZdoStartupFromApp    0x00218559    0x34  Code  Gb  MT_ZDO.o [1]
MT_ZdoUnbindRequest     0x00218377    0xc6  Code  Gb  MT_ZDO.o [1]
MT_ZdoUserDescRequest   0x00218015    0x4c  Code  Gb  MT_ZDO.o [1]
MT_ZdoUserDescSet       0x0021809d    0x68  Code  Gb  MT_ZDO.o [1]
NIB_init                0x002147ab   0x11c  Code  Gb  nwk_globals.o [1]
NLDE_BuildMsg           0x00208759   0x124  Code  Lc  nwk_util.o [3]
NLDE_CheckForAddrConflict
                        0x00209013    0x36  Code  Gb  nwk_util.o [3]
NLDE_CheckFrameSecurity
                        0x002089bf    0x30  Code  Gb  nwk_util.o [3]
NLDE_DataCnf            0x00214029    0x7e  Code  Gb  NLMEDE_CB.o [3]
NLDE_DataIndSend        0x0020868f    0x54  Code  Gb  nwk_util.o [3]
NLDE_DataIndication     0x002140a7   0x14e  Code  Gb  NLMEDE_CB.o [3]
NLDE_DataReq            0x00205f89    0x5c  Code  Gb  NLMEDE.o [3]
NLDE_DataReqAlloc       0x00205fe5    0x40  Code  Gb  NLMEDE.o [3]
NLDE_DataReqSend        0x00208589   0x106  Code  Gb  nwk_util.o [3]
NLDE_FrameDataLoad      0x0020a021    0x38  Code  Gb  APSMEDE.o [3]
NLDE_GetHandle          0x00208ab9    0x1e  Code  Gb  nwk_util.o [3]
NLDE_ParseFrameControl  0x00208981    0x3e  Code  Gb  nwk_util.o [3]
NLDE_ParseMsg           0x0020887d   0x104  Code  Gb  nwk_util.o [3]
NLDE_ParseMsg2          0x002089ef    0x9c  Code  Gb  nwk_util.o [3]
NLDE_SendMsg            0x002086e3    0x76  Code  Gb  nwk_util.o [3]
NLME_CheckNewAddrSet    0x00208f39    0xda  Code  Gb  nwk_util.o [3]
NLME_CmdBcast           0x00208de9    0x12  Code  Gb  nwk_util.o [3]
NLME_CmdCnf             0x00208d71    0x78  Code  Gb  nwk_util.o [3]
NLME_CmdDataReqAlloc    0x00208dfb    0x3a  Code  Gb  nwk_util.o [3]
NLME_DeviceJoiningInit  0x00205f7d     0xc  Code  Gb  NLMEDE.o [3]
NLME_GetCoordExtAddr    0x00208ab1     0x8  Code  Gb  nwk_util.o [3]
NLME_GetCoordShortAddr  0x00208aa9     0x8  Code  Gb  nwk_util.o [3]
NLME_GetExtAddr         0x00208a8b    0x16  Code  Gb  nwk_util.o [3]
NLME_GetProtocolVersion
                        0x00208e35     0x8  Code  Gb  nwk_util.o [3]
NLME_GetShortAddr       0x00208aa1     0x8  Code  Gb  nwk_util.o [3]
NLME_IsAddressBroadcast
                        0x00208e5d    0x3e  Code  Gb  nwk_util.o [3]
NLME_JoinConfirm        0x00214203     0x4  Code  Gb  NLMEDE_CB.o [3]
NLME_JoinRequest        0x00206221    0xc4  Code  Gb  NLMEDE.o [3]
NLME_LeaveCmdProcess    0x00208cb9    0xb8  Code  Gb  nwk_util.o [3]
NLME_LeaveCmdSend       0x00208c1b    0x9e  Code  Gb  nwk_util.o [3]
NLME_LeaveCnf           0x00214207     0x4  Code  Gb  NLMEDE_CB.o [3]
NLME_LeaveInd           0x0021420b     0x4  Code  Gb  NLMEDE_CB.o [3]
NLME_LeaveRsp           0x002062e5    0x46  Code  Gb  NLMEDE.o [3]
NLME_NetworkDiscoveryConfirm
                        0x002141fb     0x4  Code  Gb  NLMEDE_CB.o [3]
NLME_NetworkDiscoveryRequest
                        0x00206025    0x3e  Code  Gb  NLMEDE.o [3]
NLME_NetworkStatusCB    0x00214255     0x4  Code  Gb  NLMEDE_CB.o [3]
NLME_NwkDiscTerm        0x00206063    0x1a  Code  Gb  NLMEDE.o [3]
NLME_OrphanJoinRequest  0x002060d3    0x2a  Code  Gb  NLMEDE.o [3]
NLME_PermitJoining      0x2000430e     0x1  Data  Gb  NLMEDE.o [3]
NLME_PermitJoiningDuration
                        0x2000430f     0x1  Data  Lc  NLMEDE.o [3]
NLME_PermitJoiningRequest
                        0x0020607d    0x1c  Code  Gb  NLMEDE.o [3]
NLME_PermitJoiningSet   0x00206099    0x3a  Code  Lc  NLMEDE.o [3]
NLME_PollConfirm        0x00214213     0x4  Code  Gb  NLMEDE_CB.o [3]
NLME_ProcessNetworkStatus
                        0x00209099    0x4e  Code  Gb  nwk_util.o [3]
NLME_ReJoinReq          0x00206103   0x11e  Code  Lc  NLMEDE.o [3]
NLME_ReJoinRequest      0x002060fd     0x4  Code  Gb  NLMEDE.o [3]
NLME_ReJoinRequestUnsecure
                        0x00206101     0x2  Code  Gb  NLMEDE.o [3]
NLME_ReadNwkKeyInfo     0x00209523    0x22  Code  Gb  nwk_util.o [3]
NLME_RejoinRspCmdProcess
                        0x00208ba5    0x76  Code  Gb  nwk_util.o [3]
NLME_RouteDiscoveryIndication
                        0x00214217    0x20  Code  Gb  NLMEDE_CB.o [3]
NLME_RouteDiscoveryRequest
                        0x00209565   0x126  Code  Gb  rtg.o [3]
NLME_ScanFields         0x200050e8     0x4  Data  Gb  NLMEDE.o [3]
NLME_SendNetworkStatus  0x00209049    0x50  Code  Gb  nwk_util.o [3]
NLME_SetBroadcastFilter
                        0x00208e3d    0x18  Code  Gb  nwk_util.o [3]
NLME_SetPollRate        0x00208b69    0x2c  Code  Gb  nwk_util.o [3]
NLME_SetQueuedPollRate  0x00208b95     0x8  Code  Gb  nwk_util.o [3]
NLME_SetResponseRate    0x00208b9d     0x8  Code  Gb  nwk_util.o [3]
NLME_SyncIndication     0x0021420f     0x4  Code  Gb  NLMEDE_CB.o [3]
NLME_beaconNotifyInd    0x002141ff     0x4  Code  Gb  NLMEDE_CB.o [3]
NWK_TaskID              0x2000515d     0x1  Data  Gb  nwk.o [3]
NmiSR                   0x0021a075     0x2  Code  Lc  startup_ewarm.o [1]
NwkDescList             0x20004ae4     0x4  Data  Gb  nwk.o [3]
NwkInfoStrs             0x0021a420     0xc  Data  Gb  zcl_ha.o [1]
NwkInfoZcStr            0x0021a4a4     0x8  Data  Gb  zcl_ha.o [1]
NwkInfoZedStr           0x0021a4b4     0x8  Data  Gb  zcl_ha.o [1]
NwkInfoZrStr            0x0021a4ac     0x8  Data  Gb  zcl_ha.o [1]
OSAL_timeSeconds        0x20005078     0x4  Data  Gb  OSAL_Clock.o [1]
OnBoard_KeyCallback     0x00203f59    0x18  Code  Gb  OnBoard.o [1]
OnBoard_SendKeys        0x00203f25    0x34  Code  Gb  OnBoard.o [1]
OnboardKeyIntEnable     0x2000512d     0x1  Data  Gb  OnBoard.o [1]
Onboard_rand            0x00203fdb     0x8  Code  Gb  OnBoard.o [1]
ParentStr               0x0021a494     0x8  Data  Gb  nwk_globals.o [1]
PortCPortAIsr           0x0021a06d     0x8  Code  Lc  startup_ewarm.o [1]
ProcessData             0x00202e1d   0x1a2  Code  Gb  zcl_samplesw.o [1]
RTG_AddRtgEntry         0x00209751   0x15c  Code  Lc  rtg.o [3]
RTG_BcastDel            0x002099b5    0x2a  Code  Gb  rtg.o [3]
RTG_CheckRtStatus       0x00209a91    0xb0  Code  Gb  rtg.o [3]
RTG_GetRoutingAddress   0x00209b45    0x34  Code  Lc  rtg.o [3]
RTG_GetRtDiscEntry      0x002099e5    0x2e  Code  Lc  rtg.o [3]
RTG_GetRtgEntry         0x00209a13    0x72  Code  Gb  rtg.o [3]
RTG_MTORouteReq         0x00209691    0x4a  Code  Gb  rtg.o [3]
RTG_RemoveRtgEntry      0x00209903    0x28  Code  Gb  rtg.o [3]
RTG_SendBrokenRoute     0x00209b79    0x4e  Code  Gb  rtg.o [3]
RTG_SendRErr            0x002096db    0x5e  Code  Gb  rtg.o [3]
RTG_UpdateNeighborEntry
                        0x00208ad7    0x92  Code  Gb  nwk_util.o [3]
RTG_UpdateRtDiscEntry   0x00209931    0x76  Code  Lc  rtg.o [3]
RTG_ValidateSrcRtg      0x002098c9    0x3a  Code  Gb  rtg.o [3]
RTG_nextHopIsBad        0x00209bc7    0x32  Code  Gb  rtg.o [3]
Region$$Table$$Base     0x0021a128           --   Gb  - Linker created -
Region$$Table$$Limit    0x0021a15c           --   Gb  - Linker created -
RegisterForKeys         0x00203f0f    0x16  Code  Gb  OnBoard.o [1]
ResetIsr                0x0021a039    0x22  Code  Lc  startup_ewarm.o [1]
SOCADCDataGet           0x0021003f    0x12  Code  Gb  adc.o [9]
SOCADCEndOfCOnversionGet
                        0x00210051     0xc  Code  Gb  adc.o [9]
SOCADCSingleConfigure   0x0021001d    0x14  Code  Gb  adc.o [9]
SOCADCSingleStart       0x00210031     0xe  Code  Gb  adc.o [9]
SSIBusy                 0x00213983     0xa  Code  Gb  ssi.o [9]
SSIClockSourceSet       0x0021398d     0x6  Code  Gb  ssi.o [9]
SSIConfigSetExpClk      0x002138fd    0x46  Code  Gb  ssi.o [9]
SSIDataGet              0x00213965     0xc  Code  Gb  ssi.o [9]
SSIDataGetNonBlocking   0x00213971    0x12  Code  Gb  ssi.o [9]
SSIDataPut              0x0021395b     0xa  Code  Gb  ssi.o [9]
SSIDisable              0x0021394f     0xc  Code  Gb  ssi.o [9]
SSIEnable               0x00213943     0xc  Code  Gb  ssi.o [9]
SSP_BuildAuxHdr2        0x002142cd    0x44  Code  Gb  ssp.o [3]
SSP_BuildNonce          0x002144a9    0x1e  Code  Gb  ssp.o [3]
SSP_CCM_Auth_Encrypt    0x00218bb5    0x80  Code  Gb  hal_ccm.o [1]
SSP_CCM_InvAuth_Decrypt
                        0x00218c35    0x82  Code  Gb  hal_ccm.o [1]
SSP_GetMicLen           0x00214775     0xe  Code  Gb  ssp.o [3]
SSP_GetMicLenHook       0x20005014     0x4  Data  Lc  ssp.o [3]
SSP_GetMicLenProc       0x002144c9    0x10  Code  Gb  ssp.o [3]
SSP_GetNwkKey           0x002144d9    0x52  Code  Gb  ssp.o [3]
SSP_Init                0x00214259    0x12  Code  Gb  ssp.o [3]
SSP_KeyedHash           0x00218901    0xa4  Code  Gb  ssp_hash.o [3]
SSP_NwkSecurity         0x00214763    0x12  Code  Gb  ssp.o [3]
SSP_NwkSecurityHook     0x20005010     0x4  Data  Lc  ssp.o [3]
SSP_NwkSecurityProc     0x0021452d   0x144  Code  Gb  ssp.o [3]
SSP_ParseAuxHdr         0x0021426b    0x62  Code  Gb  ssp.o [3]
SSP_Process             0x00214311    0xac  Code  Gb  ssp.o [3]
SSP_ReadNwkActiveKey    0x002143bd    0x1c  Code  Gb  ssp.o [3]
SSP_SwitchNwkKey        0x00214407    0xa2  Code  Gb  ssp.o [3]
SSP_UpdateNwkKey        0x002143d9    0x2e  Code  Gb  ssp.o [3]
ScanFailedStr           0x0021a414     0xc  Data  Gb  nwk_globals.o [1]
SendDataFull            0x00202dcf    0x4e  Code  Gb  zcl_samplesw.o [1]
SuccessStr              0x0021a48c     0x8  Data  Gb  nwk_globals.o [1]
SysCtrlClockGet         0x00212a15    0x2c  Code  Gb  sys_ctrl.o [9]
SysCtrlClockSet         0x002129c9    0x4c  Code  Gb  sys_ctrl.o [9]
SysCtrlClockStartSetting
                        0x00213be1    0x18  Code  Gb  hal_sys_ctrl.o [1]
SysCtrlDeepSleepSetting
                        0x00213b35    0x5c  Code  Gb  hal_sys_ctrl.o [1]
SysCtrlDelay            0x00212a8d     0x8  Code  Gb  sys_ctrl.o [9]
SysCtrlIOClockGet       0x00212a41    0x2e  Code  Gb  sys_ctrl.o [9]
SysCtrlPeripheralDeepSleepDisable
                        0x00212b19     0x6  Code  Gb  sys_ctrl.o [9]
SysCtrlPeripheralEnable
                        0x00212ad9     0x6  Code  Gb  sys_ctrl.o [9]
SysCtrlPeripheralReset  0x00212a9d    0x3c  Code  Gb  sys_ctrl.o [9]
SysCtrlPeripheralSleepDisable
                        0x00212af9     0x4  Code  Gb  sys_ctrl.o [9]
SysCtrlPowIntClear      0x00213bcd    0x14  Code  Gb  hal_sys_ctrl.o [1]
SysCtrlReset            0x00212a95     0x8  Code  Gb  sys_ctrl.o [9]
SysCtrlRunSetting       0x00213a6d    0x6c  Code  Gb  hal_sys_ctrl.o [1]
SysCtrlSleepSetting     0x00213ad9    0x5c  Code  Gb  hal_sys_ctrl.o [1]
SysCtrlWakeupSetting    0x00213b91    0x3c  Code  Gb  hal_sys_ctrl.o [1]
SysTickEnable           0x00218859     0xc  Code  Gb  systick.o [9]
SysTickIntDisable       0x00218871     0xc  Code  Gb  systick.o [9]
SysTickIntEnable        0x00218865     0xc  Code  Gb  systick.o [9]
SysTickIntHandler       0x00219779     0xa  Code  Gb  hal_systick.o [1]
SysTickPeriodSet        0x0021887d     0x8  Code  Gb  systick.o [9]
SysTickSetup            0x00219783    0x20  Code  Gb  hal_systick.o [1]
TCLinkKeyFrmCntr        0x20004f84     0xc  Data  Gb  ZDSecMgr.o [1]
UARTCharGetNonBlocking  0x00213a3b    0x10  Code  Gb  uart.o [9]
UARTCharPutNonBlocking  0x00213a4b    0x10  Code  Gb  uart.o [9]
UARTCharsAvail          0x00213a2b     0x6  Code  Gb  uart.o [9]
UARTConfigSetExpClk     0x0021399b    0x46  Code  Gb  uart.o [9]
UARTDisable             0x002139fb    0x1e  Code  Gb  uart.o [9]
UARTEnable              0x002139e1    0x1a  Code  Gb  uart.o [9]
UARTFIFOEnable          0x00213a19     0xc  Code  Gb  uart.o [9]
UARTFIFOLevelSet        0x00213995     0x6  Code  Gb  uart.o [9]
UARTIntClear            0x00213a67     0x4  Code  Gb  uart.o [9]
UARTIntEnable           0x00213a61     0x6  Code  Gb  uart.o [9]
UBRRTable               0x0021a18c    0x14  Data  Gb  hal_uart.o [1]
ZDAppCheckForHoldKey    0x0020ec21    0x20  Code  Gb  ZDApp.o [1]
ZDAppDetermineDeviceType
                        0x0020eaf7    0x80  Code  Gb  ZDApp.o [1]
ZDAppNwkAddr            0x20004f78     0xc  Data  Gb  ZDApp.o [1]
ZDAppPendingBindReq     0x200050a4     0x4  Data  Gb  ZDApp.o [1]
ZDAppTaskID             0x20005146     0x1  Data  Gb  ZDApp.o [1]
ZDApp_AgeOutPendingBindEntry
                        0x0020fb89   0x120  Code  Gb  ZDApp.o [1]
ZDApp_AnnounceNewAddress
                        0x0020f9a5    0x28  Code  Gb  ZDApp.o [1]
ZDApp_DeviceAuthEvt     0x0020eb77    0x60  Code  Gb  ZDApp.o [1]
ZDApp_GetEmptyPendingBindReq
                        0x0020fa69    0x3c  Code  Gb  ZDApp.o [1]
ZDApp_InMsgCB           0x0020f903    0x32  Code  Gb  ZDApp.o [1]
ZDApp_Init              0x0020e82d    0x6c  Code  Gb  ZDApp.o [1]
ZDApp_InitPendingBind   0x0020fa31    0x38  Code  Gb  ZDApp.o [1]
ZDApp_InitUserDesc      0x0020ebd9    0x48  Code  Gb  ZDApp.o [1]
ZDApp_InitZdoCBFunc     0x0020f9cf    0x1a  Code  Gb  ZDApp.o [1]
ZDApp_JoinReq           0x0020f40f    0x3c  Code  Gb  ZDApp.o [1]
ZDApp_LeaveCtrl         0x20005148     0x1  Data  Gb  ZDApp.o [1]
ZDApp_LeaveCtrlInit     0x0020f2d7    0x2e  Code  Gb  ZDApp.o [1]
ZDApp_LeaveCtrlReset    0x0020f337    0x1a  Code  Gb  ZDApp.o [1]
ZDApp_LeaveCtrlSet      0x0020f305    0x32  Code  Gb  ZDApp.o [1]
ZDApp_LeaveCtrlStartup  0x0020f351    0x30  Code  Gb  ZDApp.o [1]
ZDApp_LeaveReset        0x0020f389    0x16  Code  Gb  ZDApp.o [1]
ZDApp_LeaveUpdate       0x0020f39f    0x58  Code  Gb  ZDApp.o [1]
ZDApp_NVUpdate          0x0020f9cd     0x2  Code  Gb  ZDApp.o [1]
ZDApp_NetworkDiscoveryReq
                        0x0020f3fd    0x12  Code  Gb  ZDApp.o [1]
ZDApp_NetworkInit       0x0020f935    0x2a  Code  Gb  ZDApp.o [1]
ZDApp_NewDeviceList     0x200050a8     0x4  Data  Gb  ZDApp.o [1]
ZDApp_NodeProfileSync   0x0020f965    0x40  Code  Gb  ZDApp.o [1]
ZDApp_NwkDescListProcessing
                        0x0020f4e9   0x110  Code  Gb  ZDApp.o [1]
ZDApp_ProcessMsgCBs     0x0020eedd    0x5c  Code  Gb  ZDApp.o [1]
ZDApp_ProcessNetworkJoin
                        0x0020efcb   0x234  Code  Gb  ZDApp.o [1]
ZDApp_ProcessOSALMsg    0x0020ec41   0x29c  Code  Gb  ZDApp.o [1]
ZDApp_ProcessPendingBindReq
                        0x0020faad    0xd8  Code  Gb  ZDApp.o [1]
ZDApp_ProcessSecEvent   0x0020ea0b    0x46  Code  Gb  ZDApp.o [1]
ZDApp_ProcessSecMsg     0x0020ef71    0x5a  Code  Gb  ZDApp.o [1]
ZDApp_RegisterCBs       0x0020ef39    0x38  Code  Gb  ZDApp.o [1]
ZDApp_ResetTimerCancel  0x0020f2b9    0x1e  Code  Gb  ZDApp.o [1]
ZDApp_ResetTimerStart   0x0020f293    0x26  Code  Gb  ZDApp.o [1]
ZDApp_RestoreNwkKey     0x0020f22b    0x68  Code  Gb  ZDApp.o [1]
ZDApp_SaveNetworkStateEvt
                        0x0020ebd7     0x2  Code  Gb  ZDApp.o [1]
ZDApp_SaveNwkKey        0x0020f1ff    0x2c  Code  Gb  ZDApp.o [1]
ZDApp_SavedPollRate     0x200042f8     0x2  Data  Gb  ZDApp.o [1]
ZDApp_SecInit           0x0020e899    0x90  Code  Gb  ZDApp.o [1]
ZDApp_SendMsg           0x0020f45d    0x46  Code  Gb  ZDApp.o [1]
ZDApp_SetPendingBindDefault
                        0x0020fa1b    0x16  Code  Gb  ZDApp.o [1]
ZDApp_epDesc            0x200042a4    0x10  Data  Gb  ZDApp.o [1]
ZDApp_event_loop        0x0020e929    0xe2  Code  Gb  ZDApp.o [1]
ZDConfig_InitDescriptors
                        0x00217291     0xc  Code  Gb  ZDConfig.o [1]
ZDConfig_UpdateNodeDescriptor
                        0x0021729d    0x8c  Code  Gb  ZDConfig.o [1]
ZDConfig_UpdatePowerDescriptor
                        0x00217329    0x52  Code  Gb  ZDConfig.o [1]
ZDOBuildBuf             0x20004db8    0x34  Data  Lc  ZDObject.o [1]
ZDODeviceSetup          0x00207195     0xc  Code  Lc  ZDObject.o [1]
ZDOInitDevice           0x0020ea51    0xa6  Code  Gb  ZDApp.o [1]
ZDO_AnyClusterMatches   0x00207303    0x3e  Code  Gb  ZDObject.o [1]
ZDO_Config_Node_Descriptor
                        0x20004f28    0x10  Data  Gb  ZDConfig.o [1]
ZDO_Config_Power_Descriptor
                        0x200050ac     0x4  Data  Gb  ZDConfig.o [1]
ZDO_ConvertOTAClusters  0x002074bf    0x2a  Code  Gb  ZDObject.o [1]
ZDO_DeregisterForZdoCB  0x0020fa01    0x1a  Code  Gb  ZDApp.o [1]
ZDO_EDBind              0x200050b0     0x4  Data  Lc  ZDObject.o [1]
ZDO_Init                0x00207179    0x1c  Code  Gb  ZDObject.o [1]
ZDO_JoinConfirmCB       0x0020f761    0x7e  Code  Gb  ZDApp.o [1]
ZDO_LeaveCnf            0x0020f7f1    0x36  Code  Gb  ZDApp.o [1]
ZDO_LeaveInd            0x0020f839    0x88  Code  Gb  ZDApp.o [1]
ZDO_NetworkDiscoveryConfirmCB
                        0x0020f4a3    0x32  Code  Gb  ZDApp.o [1]
ZDO_NetworkStatusCB     0x0020f8f3     0xe  Code  Gb  ZDApp.o [1]
ZDO_ParseAddrRsp        0x00207ba1    0x88  Code  Gb  ZDObject.o [1]
ZDO_ParseBindUnbindReq  0x00207b51    0x50  Code  Gb  ZDObject.o [1]
ZDO_ParseEPListRsp      0x00207c29    0x56  Code  Gb  ZDObject.o [1]
ZDO_PollConfirmCB       0x0020f8f1     0x2  Code  Gb  ZDApp.o [1]
ZDO_ProcessActiveEPReq  0x0020745f    0x60  Code  Gb  ZDObject.o [1]
ZDO_ProcessBindUnbindReq
                        0x002077f5   0x142  Code  Gb  ZDObject.o [1]
ZDO_ProcessEndDeviceTimeoutReq
                        0x00207995    0x5a  Code  Gb  ZDObject.o [1]
ZDO_ProcessMatchDescReq
                        0x002074e9   0x30c  Code  Gb  ZDObject.o [1]
ZDO_ProcessNodeDescReq  0x00207341    0x50  Code  Gb  ZDObject.o [1]
ZDO_ProcessPowerDescReq
                        0x00207391    0x50  Code  Gb  ZDObject.o [1]
ZDO_ProcessServerDiscReq
                        0x0020795b    0x3a  Code  Gb  ZDObject.o [1]
ZDO_ProcessSimpleDescReq
                        0x002073e1    0x7e  Code  Gb  ZDObject.o [1]
ZDO_ProcessUserDescReq  0x00207a21    0x5c  Code  Gb  ZDObject.o [1]
ZDO_ProcessUserDescSet  0x00207a85    0xa2  Code  Gb  ZDObject.o [1]
ZDO_RegisterForZDOMsg   0x00205c95    0x68  Code  Gb  ZDProfile.o [1]
ZDO_RegisterForZdoCB    0x0020f9e9    0x18  Code  Gb  ZDApp.o [1]
ZDO_RemoveRegisteredCB  0x00205cfd    0x54  Code  Gb  ZDProfile.o [1]
ZDO_SendMsgCBs          0x00205d51    0x76  Code  Gb  ZDProfile.o [1]
ZDO_StartDevice         0x002071a1    0xe4  Code  Gb  ZDObject.o [1]
ZDO_SyncIndicationCB    0x0020f8c1    0x22  Code  Gb  ZDApp.o [1]
ZDO_UpdateAddrManager   0x00207937    0x24  Code  Gb  ZDObject.o [1]
ZDO_UpdateNwkStatus     0x002072cb    0x38  Code  Gb  ZDObject.o [1]
ZDO_UseExtendedPANID    0x20004fe0     0x8  Data  Gb  ZDApp.o [1]
ZDO_beaconNotifyIndCB   0x0020f611   0x146  Code  Gb  ZDApp.o [1]
ZDP_AF_ENDPOINT         0x002197a3     0x1  Data  Gb  ZDProfile.o [1]
ZDP_BindUnbindReq       0x00205b7f    0xce  Code  Gb  ZDProfile.o [1]
ZDP_Buf                 0x20004c78    0x50  Data  Lc  ZDProfile.o [1]
ZDP_DeviceAnnce         0x00205445    0x64  Code  Gb  ZDProfile.o [1]
ZDP_EPRsp               0x002058b1    0xa0  Code  Gb  ZDProfile.o [1]
ZDP_EndDeviceBindReq    0x00205a57   0x128  Code  Gb  ZDProfile.o [1]
ZDP_EndDeviceTimeoutReq
                        0x002054a9    0x56  Code  Gb  ZDProfile.o [1]
ZDP_GenericRsp          0x00205a0b    0x4c  Code  Gb  ZDProfile.o [1]
ZDP_IEEEAddrReq         0x002051a3    0x5a  Code  Gb  ZDProfile.o [1]
ZDP_IncomingData        0x00205dc7    0x94  Code  Gb  ZDProfile.o [1]
ZDP_MatchDescReq        0x002051fd   0x140  Code  Gb  ZDProfile.o [1]
ZDP_MgmtPermitJoinReq   0x00205c4d    0x26  Code  Gb  ZDProfile.o [1]
ZDP_NWKAddrOfInterestReq
                        0x002050fd    0x32  Code  Gb  ZDProfile.o [1]
ZDP_NodeDescMsg         0x00205611    0xf2  Code  Gb  ZDProfile.o [1]
ZDP_NwkAddrReq          0x0020512f    0x74  Code  Gb  ZDProfile.o [1]
ZDP_PowerDescMsg        0x00205703    0x76  Code  Gb  ZDProfile.o [1]
ZDP_SendData            0x0020508d    0x70  Code  Gb  ZDProfile.o [1]
ZDP_ServerDiscReq       0x002053f1    0x54  Code  Gb  ZDProfile.o [1]
ZDP_ServerDiscRsp       0x002059b1    0x5a  Code  Gb  ZDProfile.o [1]
ZDP_SimpleDescMsg       0x00205779   0x138  Code  Gb  ZDProfile.o [1]
ZDP_SimpleDescReq       0x0020533d    0x36  Code  Gb  ZDProfile.o [1]
ZDP_TmpBuf              0x200042e8     0x4  Data  Lc  ZDProfile.o [1]
ZDP_TransID             0x2000514e     0x1  Data  Gb  ZDProfile.o [1]
ZDP_TxOptions           0x2000514f     0x1  Data  Gb  ZDProfile.o [1]
ZDP_UserDescRsp         0x00205951    0x60  Code  Gb  ZDProfile.o [1]
ZDP_UserDescSet         0x00205373    0x7e  Code  Gb  ZDProfile.o [1]
ZDSecMgrAddrClear       0x00211ff1    0x3a  Code  Gb  ZDSecMgr.o [1]
ZDSecMgrAddrStore       0x00211f71    0x44  Code  Gb  ZDSecMgr.o [1]
ZDSecMgrApsLinkKeyInit  0x00212881    0x4a  Code  Gb  ZDSecMgr.o [1]
ZDSecMgrAuthNwkKey      0x0021221d    0x1a  Code  Gb  ZDSecMgr.o [1]
ZDSecMgrAuthenticationCheck
                        0x00212431    0x62  Code  Gb  ZDSecMgr.o [1]
ZDSecMgrConfig          0x00212249     0xc  Code  Gb  ZDSecMgr.o [1]
ZDSecMgrDeviceRemoveByExtAddr
                        0x002121fd    0x20  Code  Gb  ZDSecMgr.o [1]
ZDSecMgrEntries         0x200050b8     0x4  Data  Gb  ZDSecMgr.o [1]
ZDSecMgrEntryFree       0x0021215b    0x3e  Code  Gb  ZDSecMgr.o [1]
ZDSecMgrEntryInit       0x0021202b    0x54  Code  Gb  ZDSecMgr.o [1]
ZDSecMgrEntryLookupAMI  0x0021207f    0x50  Code  Gb  ZDSecMgr.o [1]
ZDSecMgrEntryLookupExt  0x002120cf    0x2e  Code  Gb  ZDSecMgr.o [1]
ZDSecMgrEntryLookupExtGetIndex
                        0x002120fd    0x5e  Code  Gb  ZDSecMgr.o [1]
ZDSecMgrEntryNew        0x00212199    0x64  Code  Gb  ZDSecMgr.o [1]
ZDSecMgrExtAddrLookup   0x00211fb5    0x3c  Code  Gb  ZDSecMgr.o [1]
ZDSecMgrInit            0x00212237    0x12  Code  Gb  ZDSecMgr.o [1]
ZDSecMgrInitNVKeyTables
                        0x002128cb    0x1a  Code  Gb  ZDSecMgr.o [1]
ZDSecMgrNwkKeyInit      0x0021278d    0x78  Code  Gb  ZDSecMgr.o [1]
ZDSecMgrReadKeyFromNv   0x00212805    0x7c  Code  Gb  ZDSecMgr.o [1]
ZDSecMgrSaveTCLinkKey   0x002128e5    0x8e  Code  Gb  ZDSecMgr.o [1]
ZDSecMgrSwitchKeyInd    0x0021237d    0x10  Code  Gb  ZDSecMgr.o [1]
ZDSecMgrTCDataLoad      0x00212255    0x34  Code  Gb  ZDSecMgr.o [1]
ZDSecMgrTransportKeyInd
                        0x00212289    0xf4  Code  Gb  ZDSecMgr.o [1]
ZDSecMgrUpdateTCAddress
                        0x00212979    0x24  Code  Gb  ZDSecMgr.o [1]
ZMacAssociateReq        0x00210ce5    0x12  Code  Gb  zmac.o [1]
ZMacDataReqSec          0x00210d91    0x6e  Code  Gb  zmac.o [1]
ZMacGetReq              0x00210ca1    0x24  Code  Gb  zmac.o [1]
ZMacInit                0x00210c39    0x1e  Code  Gb  zmac.o [1]
ZMacLqiAdjust           0x002165c9    0x48  Code  Lc  zmac_cb.o [1]
ZMacPollReq             0x00210d7f    0x12  Code  Gb  zmac.o [1]
ZMacReset               0x00210c57    0x4a  Code  Gb  zmac.o [1]
ZMacScanReq             0x00210cf7    0x7a  Code  Gb  zmac.o [1]
ZMacSetReq              0x00210cc5    0x20  Code  Gb  zmac.o [1]
ZMacSrcMatchAckAllPending
                        0x00210e2d    0x10  Code  Gb  zmac.o [1]
ZMacSrcMatchAddEntry    0x00210e09    0x12  Code  Gb  zmac.o [1]
ZMacSrcMatchDeleteEntry
                        0x00210e1b    0x12  Code  Gb  zmac.o [1]
ZMacSrcMatchEnable      0x00210dff     0xa  Code  Gb  zmac.o [1]
ZMacSyncReq             0x00210d71     0xe  Code  Gb  zmac.o [1]
ZMac_ScanBuf            0x200050c0     0x4  Data  Gb  zmac.o [1]
_NIB                    0x20004a70    0x74  Data  Gb  nwk.o [3]
_ScanChannels           0x200050bc     0x4  Data  Gb  zmac.o [1]
__aeabi_memclr          0x00203ecd          Code  Gb  ABImemclr.o [8]
__aeabi_memset          0x0020a7d9          Code  Gb  ABImemset.o [8]
__cca                   0x0027ffd4     0xc  Data  Gb  startup_ewarm.o [1]
__cmain                 0x0021a089          Code  Gb  cmain.o [8]
__exit                  0x00219be9    0x14  Code  Gb  exit.o [10]
__iar_Memset            0x0020a7d9          Code  Gb  ABImemset.o [8]
__iar_Memset_word       0x0020a7e1          Code  Gb  ABImemset.o [8]
__iar_data_init3        0x0021a0a9    0x28  Code  Gb  data_init.o [8]
__iar_packbits_init3    0x00219b2f    0xb2  Code  Gb  packbits_init.o [8]
__iar_program_start     0x0021a07b          Code  Gb  cstartup_M.o [8]
__iar_unaligned___aeabi_memcpy
                        0x00203569          Code  Gb  ABImemcpy_unaligned.o [8]
__iar_unaligned___aeabi_memcpy4
                        0x00203589          Code  Gb  ABImemcpy_unaligned.o [8]
__iar_unaligned___aeabi_memcpy8
                        0x00203589          Code  Gb  ABImemcpy_unaligned.o [8]
__iar_unaligned_strcpy  0x00203fe5          Code  Gb  strcpy_unaligned.o [8]
__iar_zero_init3        0x00201f6b    0x22  Code  Gb  zero_init3.o [8]
__low_level_init        0x0021a0a3     0x4  Code  Gb  low_level_init.o [6]
__vector_table          0x00200000   0x100  Data  Gb  startup_ewarm.o [1]
_call_main              0x0021a095          Code  Gb  cmain.o [8]
_exit                   0x0021a0d5          Code  Gb  cexit.o [8]
_itoa                   0x00203f79    0x62  Code  Gb  OnBoard.o [1]
_ltoa                   0x00202049   0x1d8  Code  Gb  OSAL.o [1]
_main                   0x0021a09f          Code  Gb  cmain.o [8]
_nvBuf                  0x0027c800  0x3000  Data  Gb  osal_nv.o [1]
_savedRejoinRspAddr     0x200042b4     0x2  Data  Gb  nwk_util.o [3]
_tmpRejoinState         0x20005145     0x1  Data  Gb  ZDApp.o [1]
aExtendedAddress        0x20004fc0     0x8  Data  Gb  OnBoard.o [1]
aProcessCmd             0x200042dc     0x4  Data  Lc  zcl_samplesw.o [1]
abort                   0x00219be1     0x6  Code  Gb  abort.o [6]
accInit                 0x00207c81    0x66  Code  Gb  acc_srf06eb.o [5]
accReadData             0x00207dc1    0x52  Code  Gb  acc_srf06eb.o [5]
accReadReg              0x00207cf1    0x5e  Code  Gb  acc_srf06eb.o [5]
accWriteReg             0x00207d4f    0x54  Code  Gb  acc_srf06eb.o [5]
accumulatedOverflowCount
                        0x2000504c     0x4  Data  Lc  mac_mcu.o [1]
activeTaskID            0x20004316     0x1  Data  Lc  OSAL.o [1]
afAPSF_ConfigGet        0x00203e55    0x2c  Code  Gb  AF.o [1]
afBuildMSGIncoming      0x00203a4b    0xd6  Code  Lc  AF.o [1]
afCopyAddress           0x00203e31    0x24  Code  Gb  AF.o [1]
afDataConfirm           0x00203845    0x46  Code  Gb  AF.o [1]
afDataReqMTU            0x00203dbd    0x24  Code  Gb  AF.o [1]
afEndPoints             0x00203df9    0x2a  Code  Gb  AF.o [1]
afFindEndPointDesc      0x00203d45    0x1a  Code  Gb  AF.o [1]
afFindEndPointDescList  0x00203d29    0x1c  Code  Lc  AF.o [1]
afFindSimpleDesc        0x00203d5f    0x40  Code  Gb  AF.o [1]
afGetDescCB             0x00203d9f    0x1e  Code  Lc  AF.o [1]
afIncomingData          0x002038e1   0x16a  Code  Gb  AF.o [1]
afNumEndPoints          0x00203de1    0x18  Code  Gb  AF.o [1]
afReflectError          0x0020388b    0x56  Code  Gb  AF.o [1]
afRegister              0x0020381d    0x28  Code  Gb  AF.o [1]
afRegisterExtended      0x002037ed    0x30  Code  Gb  AF.o [1]
alsInit                 0x00204895    0x2a  Code  Gb  als_srf06eb.o [5]
alsRead                 0x002048c5    0x18  Code  Gb  als_srf06eb.o [5]
apsAckFindMatchCB       0x00217205    0x46  Code  Lc  aps_util.o [3]
apsGenerateAck          0x0021716b    0x9a  Code  Gb  aps_util.o [3]
apsGroupTable           0x200050cc     0x4  Data  Gb  aps_groups.o [3]
apsProcessAck           0x0021724b    0x3e  Code  Gb  aps_util.o [3]
aps_FindGroup           0x00208531    0x20  Code  Gb  aps_groups.o [3]
aps_FindGroupForEndpoint
                        0x00208551    0x32  Code  Gb  aps_groups.o [3]
apsfProcessAck          0x200050d4     0x4  Data  Gb  APS.o [3]
apsfSendFragmented      0x200050d0     0x4  Data  Gb  APS.o [3]
apsfSendOsalMsg         0x200050d8     0x4  Data  Gb  APS.o [3]
attrList                0x20005094     0x4  Data  Lc  zcl.o [1]
autoLight               0x20005142     0x1  Data  Gb  zcl_samplesw.o [1]
backoffTimerRollover    0x20005040     0x4  Data  Lc  mac_backoff_timer.o [1]
backoffTimerTrigger     0x20005044     0x4  Data  Lc  mac_backoff_timer.o [1]
bcastHoldHandle         0x20004f48     0xc  Data  Gb  nwk_globals.o [1]
bindAddClusterIdToList  0x00210371    0x28  Code  Gb  BindingTable.o [1]
bindAddEntry            0x00210151   0x17a  Code  Gb  BindingTable.o [1]
bindAddrIndexGet        0x00210835    0x74  Code  Gb  BindingTable.o [1]
bindAddrMgrLocalLoad    0x002107d9    0x5c  Code  Gb  BindingTable.o [1]
bindAddrMgrLocalLoaded  0x200050fe     0x1  Data  Lc  BindingTable.o [1]
bindAddressClear        0x002105e5    0x72  Code  Gb  BindingTable.o [1]
bindFind                0x0021057f    0x66  Code  Gb  BindingTable.o [1]
bindFindEmpty           0x002100d9    0x38  Code  Gb  BindingTable.o [1]
bindFindExisting        0x00210399    0xe6  Code  Gb  BindingTable.o [1]
bindIsClusterIDinList   0x002102e1    0x2c  Code  Gb  BindingTable.o [1]
bindNumOfEntries        0x00210111    0x3e  Code  Gb  BindingTable.o [1]
bindNumReflections      0x00210529    0x56  Code  Gb  BindingTable.o [1]
bindRemoveClusterIdFromList
                        0x0021030d    0x64  Code  Gb  BindingTable.o [1]
bindRemoveDev           0x00210481    0xa8  Code  Gb  BindingTable.o [1]
bindRemoveEntry         0x002102cb    0x16  Code  Gb  BindingTable.o [1]
bindingAddrMgsHelperConvert
                        0x0021078b    0x32  Code  Gb  BindingTable.o [1]
bindingAddrMgsHelperConvertShort
                        0x002107bd    0x1c  Code  Gb  BindingTable.o [1]
bindingAddrMgsHelperFind
                        0x00210757    0x34  Code  Gb  BindingTable.o [1]
bsp3V3DomainEnable      0x002109b7    0x12  Code  Gb  bsp.o [5]
bspKeyDirPushedISR      0x00214e35    0x70  Code  Lc  bsp_key.o [5]
bspKeyInit              0x00214c7d    0x82  Code  Gb  bsp_key.o [5]
bspKeyIntDisabledMask   0x20004e54     0x4  Data  Lc  bsp_key.o [5]
bspKeyIntEnable         0x00214e01    0x22  Code  Gb  bsp_key.o [5]
bspKeyIntRegister       0x00214dd9    0x28  Code  Gb  bsp_key.o [5]
bspKeyPushed            0x00214cff    0xd4  Code  Gb  bsp_key.o [5]
bspKeySelPushedISR      0x00214ea5    0x48  Code  Lc  bsp_key.o [5]
bspKeyTimerEnable       0x00214f45    0x20  Code  Lc  bsp_key.o [5]
bspKeyTimerISR          0x00214efd    0x48  Code  Lc  bsp_key.o [5]
bspKeyTimerIntRegister  0x00214f75    0x14  Code  Lc  bsp_key.o [5]
bspKeysIsrTable         0x20004e3c    0x14  Data  Lc  bsp_key.o [5]
bspKeysPressed          0x20004e50     0x4  Data  Lc  bsp_key.o [5]
bspLedClear             0x002048fd     0x4  Code  Gb  bsp_led.o [5]
bspLedGet               0x00202731    0x12  Code  Gb  zcl_samplesw.o [1]
bspLedInit              0x002048dd    0x1a  Code  Gb  bsp_led.o [5]
bspLedSet               0x002048f7     0x6  Code  Gb  bsp_led.o [5]
bspSpiClockSpeedSet     0x00210989    0x2e  Code  Gb  bsp.o [5]
bspSpiInit              0x00210929    0x60  Code  Gb  bsp.o [5]
bufTemp                 0x20004fd8     0x8  Data  Lc  zcl_samplesw.o [1]
calcChkB                0x00211523    0x4e  Code  Lc  osal_nv.o [1]
calcChkF                0x00211571    0x3e  Code  Lc  osal_nv.o [1]
ccmStar                 0x00214677    0xec  Code  Gb  ssp.o [3]
clusterOptionList       0x20005098     0x4  Data  Lc  zcl.o [1]
compactPage             0x00211165   0x1c4  Code  Lc  osal_nv.o [1]
conflictedAddrTable     0x20004f90     0xc  Data  Lc  nwk_util.o [3]
connect2ZC              0x002033d5    0x62  Code  Gb  zcl_samplesw.o [1]
continueJoining         0x2000431c     0x1  Data  Gb  ZDApp.o [1]
cspPrepForTxProgram     0x0021541f    0x82  Code  Lc  mac_csp_tx.o [1]
cspReadCountSymbols     0x002153d9    0x46  Code  Lc  mac_csp_tx.o [1]
cspWeventSetTriggerNow  0x002152fd    0x6e  Code  Lc  mac_csp_tx.o [1]
cspWeventSetTriggerSymbols
                        0x0021536b    0x6e  Code  Lc  mac_csp_tx.o [1]
data                    0x2000513e     0x1  Data  Gb  zcl_samplesw.o [1]
debugCompId             0x20005126     0x1  Data  Gb  MT.o [1]
debugThreshold          0x20005125     0x1  Data  Gb  MT.o [1]
debug_str               0x00210afd    0x46  Code  Gb  DebugTrace.o [1]
defaultKey              0x0021a2cc    0x10  Data  Gb  nwk_globals.o [1]
defaultTCLinkKey        0x0021a2dc    0x10  Data  Gb  nwk_globals.o [1]
devStartMode            0x2000514a     0x1  Data  Gb  ZDApp.o [1]
devState                0x20005149     0x1  Data  Gb  ZDApp.o [1]
enableBaotrom           0x20005141     0x1  Data  Lc  zcl_samplesw.o [1]
epList                  0x20005018     0x4  Data  Gb  AF.o [1]
erasePage               0x00211123    0x42  Code  Lc  osal_nv.o [1]
exit                    0x0021a0d1     0x4  Code  Gb  exit.o [6]
ff1                     0x20007164     0x4  Data  Lc  OSAL_Memory.o [1]
fillAndSend             0x00205025    0x68  Code  Lc  ZDProfile.o [1]
findItem                0x00211329    0x4c  Code  Lc  osal_nv.o [1]
flashErasePage          0x002179f5    0x28  Code  Gb  armcm3flashutil.o [1]
flashWrite              0x00217a1d   0x17a  Code  Gb  armcm3flashutil.o [1]
flash_write_word        0x002179e1    0x12  Code  Lc  armcm3flashutil.o [1]
gBIND_REC_SIZE          0x00207c7e     0x2  Data  Gb  nwk_globals.o [1]
gDEFAULT_ROUTE_REQUEST_RADIUS
                        0x00216f1f     0x1  Data  Gb  nwk_globals.o [1]
gDEF_NWK_RADIUS         0x00217b96     0x1  Data  Gb  nwk_globals.o [1]
gKEEPALIVE_TIMEOUT_MAX  0x00203fe2     0x2  Data  Gb  nwk_globals.o [1]
gLINK_DOWN_TRIGGER      0x00213993     0x1  Data  Gb  nwk_globals.o [1]
gMAX_BCAST              0x00213a6a     0x1  Data  Gb  nwk_globals.o [1]
gMAX_BINDING_CLUSTER_IDS
                        0x00218bb2     0x1  Data  Gb  nwk_globals.o [1]
gMAX_BROADCAST_QUEUED   0x00213992     0x1  Data  Gb  nwk_globals.o [1]
gMAX_NEIGHBOR_ENTRIES   0x00212cae     0x1  Data  Gb  nwk_globals.o [1]
gMAX_NWK_FRAMECOUNTER_CHANGES
                        0x0021a538     0x4  Data  Gb  nwk_globals.o [1]
gMAX_RREQ_ENTRIES       0x00211f6f     0x1  Data  Gb  nwk_globals.o [1]
gMAX_RTG_ENTRIES        0x00211f6e     0x1  Data  Gb  nwk_globals.o [1]
gMAX_SOURCE_ROUTE       0x00212caf     0x1  Data  Gb  nwk_globals.o [1]
gMIN_TREE_LINK_COST     0x20004314     0x1  Data  Gb  nwk_globals.o [1]
gMTO_ROUTE_EXPIRY_TIME  0x00216f1e     0x1  Data  Gb  nwk_globals.o [1]
gMTO_RREQ_LIMIT_TIME    0x00203ed2     0x2  Data  Gb  nwk_globals.o [1]
gNWK_CONFLICTED_ADDR_EXPIRY_TIME
                        0x00213a6b     0x1  Data  Gb  nwk_globals.o [1]
gNWK_MAX_BINDING_ENTRIES
                        0x00217b97     0x1  Data  Gb  nwk_globals.o [1]
gNWK_MAX_DATABUFS_SCHEDULED
                        0x0020a83e     0x1  Data  Gb  nwk_globals.o [1]
gNWK_MAX_DATABUFS_TOTAL
                        0x0020a83f     0x1  Data  Gb  nwk_globals.o [1]
gNWK_MAX_DATABUFS_WAITING
                        0x00209d0f     0x1  Data  Gb  nwk_globals.o [1]
gNWK_MAX_DEVICE_LIST    0x00209d0e     0x1  Data  Gb  nwk_globals.o [1]
gPermitDuration         0x2000513d     0x1  Data  Gb  zcl_samplesw.o [1]
gTIMEOUT_COUNTER_MAX    0x00204c86     0x2  Data  Gb  nwk_globals.o [1]
g_pfnRAMVectors         0x20004000   0x100  Data  Lc  interrupt.o [9]
g_pui32DCGCRegs         0x00212b80    0x18  Data  Lc  sys_ctrl.o [9]
g_pui32DisRegs          0x0020426c    0x14  Data  Lc  interrupt.o [9]
g_pui32EnRegs           0x00204258    0x14  Data  Lc  interrupt.o [9]
g_pui32IOCPortAOverrideReg
                        0x0020ff1c    0x20  Data  Lc  ioc.o [9]
g_pui32IOCPortASignSelectReg
                        0x0020ff9c    0x20  Data  Lc  ioc.o [9]
g_pui32IOCPortBOverrideReg
                        0x0020ff3c    0x20  Data  Lc  ioc.o [9]
g_pui32IOCPortBSignSelectReg
                        0x0020ffbc    0x20  Data  Lc  ioc.o [9]
g_pui32IOCPortCOverrideReg
                        0x0020ff5c    0x20  Data  Lc  ioc.o [9]
g_pui32IOCPortCSignSelectReg
                        0x0020ffdc    0x20  Data  Lc  ioc.o [9]
g_pui32IOCPortDOverrideReg
                        0x0020ff7c    0x20  Data  Lc  ioc.o [9]
g_pui32IOCPortDSignSelectReg
                        0x0020fffc    0x20  Data  Lc  ioc.o [9]
g_pui32RCGCRegs         0x00212b50    0x18  Data  Lc  sys_ctrl.o [9]
g_pui32Regs             0x002041b4    0xa4  Data  Lc  interrupt.o [9]
g_pui32SCGCRegs         0x00212b68    0x18  Data  Lc  sys_ctrl.o [9]
g_pui32SRRegs           0x00212b98    0x14  Data  Lc  sys_ctrl.o [9]
g_pui32UnpendRegs       0x00204280    0x14  Data  Lc  interrupt.o [9]
g_ui8CurrentAESOp       0x20004ee4     0x1  Data  Gb  aes.o [9]
getAccelerator          0x0020333d    0x6e  Code  Gb  zcl_samplesw.o [1]
giSwScreenMode          0x2000513c     0x1  Data  Gb  zcl_samplesw.o [1]
halAssertHandler        0x00208295     0x8  Code  Gb  hal_assert.o [1]
halAssertHazardLights   0x0020829d   0x278  Code  Gb  hal_assert.o [1]
halIntKeys              0x20005102     0x1  Data  Lc  hal_key.o [1]
halIntsAreEnabled       0x00216ad1    0x1e  Code  Lc  mac_low_level.o [1]
halSavedKeys            0x20005101     0x1  Data  Lc  hal_key.o [1]
halSleepTimerIsr        0x0021a469     0xa  Code  Gb  hal_sleep.o [1]
hal_key_int_keys        0x0020a889    0x42  Code  Gb  hal_key.o [1]
hal_key_keys            0x0020a84f    0x3a  Code  Gb  hal_key.o [1]
hdrData                 0x200042d8     0x4  Data  Lc  osal_nv.o [1]
hotIds                  0x0021a49c     0x8  Data  Lc  osal_nv.o [1]
hotItem                 0x00211aab    0x24  Code  Lc  osal_nv.o [1]
hotItemUpdate           0x00211acf    0x2a  Code  Lc  osal_nv.o [1]
hotOff                  0x20004fc8     0x8  Data  Lc  osal_nv.o [1]
hotPg                   0x2000507c     0x4  Data  Lc  osal_nv.o [1]
i16X                    0x200050f2     0x2  Data  Gb  zcl_samplesw.o [1]
i16Y                    0x200050f4     0x2  Data  Gb  zcl_samplesw.o [1]
i16Z                    0x200050f6     0x2  Data  Gb  zcl_samplesw.o [1]
i8Bsp3V3DomainEnableCount
                        0x20005160     0x1  Data  Lc  bsp.o [5]
iCount                  0x200042e0     0x4  Data  Gb  zcl_samplesw.o [1]
initAccelerometer       0x00202fbf    0x6c  Code  Lc  zcl_samplesw.o [1]
initFlash               0x002179f3     0x2  Code  Gb  armcm3flashutil.o [1]
initItem                0x00211375   0x126  Code  Lc  osal_nv.o [1]
initNV                  0x00210e49   0x158  Code  Lc  osal_nv.o [1]
initPage                0x00210fcd   0x156  Code  Lc  osal_nv.o [1]
initUart                0x00203441    0x46  Code  Lc  zcl_samplesw.o [1]
interrupt_keybd         0x0020a995    0x2c  Code  Gb  hal_key.o [1]
interrupt_uart1         0x002081f5    0x1c  Code  Gb  hal_uart.o [1]
ioPinIntRegister        0x00218cb9   0x106  Code  Gb  io_pin_int.o [5]
ioPortAIsr              0x00218dc1    0x80  Code  Lc  io_pin_int.o [5]
ioPortBIsr              0x00218e41    0x80  Code  Lc  io_pin_int.o [5]
ioPortCIsr              0x00218ed1    0x80  Code  Lc  io_pin_int.o [5]
ioPortDIsr              0x00218f69    0x86  Code  Lc  io_pin_int.o [5]
jCount                  0x200042e4     0x4  Data  Gb  zcl_samplesw.o [1]
lcdBufferPrintString    0x00210bc1    0x6c  Code  Gb  lcd_dogm128_6.o [5]
lcdDefaultBuffer        0x20004338   0x400  Data  Gb  lcd_dogm128_6.o [5]
lcdGetStringLength      0x00210bb1    0x10  Code  Gb  lcd_dogm128_6.o [5]
lcdGotoXY               0x00210b7b    0x36  Code  Gb  lcd_dogm128_6.o [5]
lcdInit                 0x002109dd    0x56  Code  Gb  lcd_srf06eb.o [5]
lcdInitCmd              0x00210ae8    0x14  Data  Lc  lcd_srf06eb.o [5]
lcdSendArray            0x00210aa7    0x38  Code  Lc  lcd_srf06eb.o [5]
lcdSendBuffer           0x00210b55    0x26  Code  Gb  lcd_dogm128_6.o [5]
lcdSendCommand          0x00210a3d    0x30  Code  Gb  lcd_srf06eb.o [5]
lcdSendData             0x00210a79    0x2e  Code  Gb  lcd_srf06eb.o [5]
lcd_alphabet            0x002197a4   0x1d8  Data  Gb  lcd_dogm128_6_alphabet.o [5]
lqiAdjMode              0x20005158     0x1  Data  Lc  zmac_cb.o [1]
macActionSet            0x20004110    0x24  Data  Gb  mac_beacon.o [4]
macAllocTxBuffer        0x0020b11f    0x40  Code  Gb  mac_beacon.o [4]
macApiAssociateReq      0x0020b839    0xba  Code  Gb  mac_beacon.o [4]
macApiBadState          0x0020c4cb    0x6e  Code  Gb  mac_beacon.o [4]
macApiDataReq           0x0020b5f9    0x62  Code  Gb  mac_beacon.o [4]
macApiDisassociateReq   0x0020c61d    0x5c  Code  Gb  mac_beacon.o [4]
macApiPending           0x0020c549    0x26  Code  Gb  mac_beacon.o [4]
macApiPollReq           0x0020bb25    0x5c  Code  Gb  mac_beacon.o [4]
macApiPwrOnReq          0x0020c89d     0x2  Code  Gb  mac_beacon.o [4]
macApiScanReq           0x0020c8b9    0xba  Code  Gb  mac_beacon.o [4]
macAssocDataReq         0x0020b8f3    0x3c  Code  Gb  mac_beacon.o [4]
macAssocDataReqComplete
                        0x0020b92f    0x5a  Code  Gb  mac_beacon.o [4]
macAssocDataRxInd       0x0020bab7    0x6e  Code  Gb  mac_beacon.o [4]
macAssocFailed          0x0020ba59    0x54  Code  Gb  mac_beacon.o [4]
macAssocFrameResponseTimeout
                        0x0020ba29    0x30  Code  Gb  mac_beacon.o [4]
macAssocRxDisassoc      0x0020baad     0xa  Code  Gb  mac_beacon.o [4]
macAssociatingSt        0x0020bdcc    0x64  Data  Gb  mac_beacon.o [4]
macBackoffTimerCancelTrigger
                        0x002152cf     0x2  Code  Gb  mac_backoff_timer.o [1]
macBackoffTimerCapture  0x0021524b    0x30  Code  Gb  mac_backoff_timer.o [1]
macBackoffTimerCompareIsr
                        0x002152d1     0x8  Code  Gb  mac_backoff_timer.o [1]
macBackoffTimerCount    0x0021521b    0x30  Code  Gb  mac_backoff_timer.o [1]
macBackoffTimerInit     0x0021518d    0x3a  Code  Gb  mac_backoff_timer.o [1]
macBackoffTimerPeriodIsr
                        0x002152d9     0xc  Code  Gb  mac_backoff_timer.o [1]
macBackoffTimerReset    0x002151c7    0x20  Code  Gb  mac_backoff_timer.o [1]
macBackoffTimerRolloverCallback
                        0x0020cd19    0x50  Code  Gb  mac_beacon.o [4]
macBackoffTimerSetRollover
                        0x002151e7    0x34  Code  Gb  mac_backoff_timer.o [1]
macBackoffTimerSetTrigger
                        0x0021527b    0x54  Code  Gb  mac_backoff_timer.o [1]
macBackoffTimerTriggerCallback
                        0x0020cc7f    0x6a  Code  Gb  mac_beacon.o [4]
macBeacon               0x20004180    0x20  Data  Gb  mac_beacon.o [4]
macBeaconDevice         0x20004bc8    0x34  Data  Gb  mac_beacon.o [4]
macBeaconMargin         0x200041a4    0x20  Data  Gb  mac_beacon.o [4]
macBuildBeaconNotifyInd
                        0x0020c405    0xb4  Code  Gb  mac_beacon.o [4]
macBuildCommonReq       0x0020c35d    0x58  Code  Gb  mac_beacon.o [4]
macBuildDataFrame       0x0020b2eb    0x3e  Code  Gb  mac_beacon.o [4]
macBuildDisassociateReq
                        0x0020c3b5    0x4a  Code  Gb  mac_beacon.o [4]
macBuildHeader          0x0020c215   0x13a  Code  Gb  mac_beacon.o [4]
macCbackEventTbl        0x0020c53c     0xc  Data  Gb  mac_beacon.o [4]
macCbackForEvent        0x0020be95    0x72  Code  Gb  mac_beacon.o [4]
macCfg                  0x0021a474     0x8  Data  Gb  mac_cfg.o [1]
macCheckSched           0x0020b329    0x10  Code  Gb  mac_beacon.o [4]
macChipVersion          0x20005048     0x4  Data  Gb  mac_mcu.o [1]
macCommStatusInd        0x0020c56f    0xae  Code  Gb  mac_beacon.o [4]
macCoordAddrCmp         0x0020c1ed    0x24  Code  Gb  mac_beacon.o [4]
macCspForceTxDoneIfPending
                        0x00215707    0x30  Code  Gb  mac_csp_tx.o [1]
macCspTxCancelAckTimeoutCallback
                        0x00215801    0x1a  Code  Gb  mac_csp_tx.o [1]
macCspTxGoCsma          0x00215595    0x32  Code  Gb  mac_csp_tx.o [1]
macCspTxGoGreenPower    0x002156d9    0x2e  Code  Gb  mac_csp_tx.o [1]
macCspTxGoSlotted       0x002155ff    0x86  Code  Gb  mac_csp_tx.o [1]
macCspTxIntIsr          0x0021581b    0x14  Code  Gb  mac_csp_tx.o [1]
macCspTxPrepCsmaSlotted
                        0x00215529    0x6c  Code  Gb  mac_csp_tx.o [1]
macCspTxPrepCsmaUnslotted
                        0x002154a1    0x88  Code  Gb  mac_csp_tx.o [1]
macCspTxPrepGreenPower  0x00215685    0x54  Code  Gb  mac_csp_tx.o [1]
macCspTxPrepSlotted     0x002155c7    0x38  Code  Gb  mac_csp_tx.o [1]
macCspTxRequestAckTimeoutCallback
                        0x00215737    0xca  Code  Gb  mac_csp_tx.o [1]
macCspTxStopIsr         0x0021582f    0x3c  Code  Gb  mac_csp_tx.o [1]
macData                 0x20004e5c    0x10  Data  Gb  mac_beacon.o [4]
macDataBeaconRequeue    0x2000417c     0x4  Data  Gb  mac_beacon.o [4]
macDataCheckSched       0x20004174     0x4  Data  Gb  mac_beacon.o [4]
macDataCheckTxTime      0x20004178     0x4  Data  Gb  mac_beacon.o [4]
macDataRequeueIndirect  0x20004168     0x4  Data  Gb  mac_beacon.o [4]
macDataReset            0x0020b0dd    0x42  Code  Gb  mac_beacon.o [4]
macDataRxBeaconCritical
                        0x2000416c     0x4  Data  Gb  mac_beacon.o [4]
macDataRxInd            0x0020b65d     0x8  Code  Gb  mac_beacon.o [4]
macDataRxMemAlloc       0x0020b1ef    0x16  Code  Gb  mac_beacon.o [4]
macDataRxMemFree        0x0020b209     0xa  Code  Gb  mac_beacon.o [4]
macDataSend             0x0020b5f7     0x2  Code  Gb  mac_beacon.o [4]
macDataSetSched         0x20004170     0x4  Data  Gb  mac_beacon.o [4]
macDataTxBeaconComplete
                        0x200042f0     0x4  Data  Gb  mac_beacon.o [4]
macDataTxComplete       0x0020b343    0x50  Code  Gb  mac_beacon.o [4]
macDataTxDelay          0x20004e6c    0x10  Data  Gb  mac_beacon.o [4]
macDataTxDelayCallback  0x0020b78d     0x2  Code  Gb  mac_beacon.o [4]
macDataTxEnqueue        0x0020b57d    0x7a  Code  Gb  mac_beacon.o [4]
macDataTxIndirect       0x20004164     0x4  Data  Gb  mac_beacon.o [4]
macDataTxSend           0x0020b48d    0xec  Code  Gb  mac_beacon.o [4]
macDataTxTimeAvailable  0x0020b2dd     0xe  Code  Gb  mac_beacon.o [4]
macDevice               0x20004bfc    0x2c  Data  Gb  mac_beacon.o [4]
macDeviceReset          0x0020b7c1    0x22  Code  Gb  mac_beacon.o [4]
macDisassocComplete     0x0020c679    0x4c  Code  Gb  mac_beacon.o [4]
macEventLoop            0x0020c07d   0x106  Code  Gb  mac_beacon.o [4]
macExecute              0x0020bf0d    0x4e  Code  Gb  mac_beacon.o [4]
macFrameDuration        0x0020b15f    0x44  Code  Gb  mac_beacon.o [4]
macGetBackOffTimerRollover
                        0x002152e5     0x6  Code  Gb  mac_backoff_timer.o [1]
macGetCoordAddress      0x0020c1c3    0x1e  Code  Gb  mac_beacon.o [4]
macIdleSt               0x00219ccc    0x64  Data  Gb  mac_beacon.o [4]
macLowLevelInit         0x00216aef    0x1c  Code  Gb  mac_low_level.o [1]
macLowLevelReset        0x00216b0b    0x28  Code  Gb  mac_low_level.o [1]
macMain                 0x20004100     0xc  Data  Gb  mac_beacon.o [4]
macMainReset            0x0020bd3b    0x34  Code  Gb  mac_beacon.o [4]
macMcuAccumulatedOverFlow
                        0x0020afcf    0x3a  Code  Gb  mac_mcu.o [1]
macMcuInit              0x0020a9d5   0x208  Code  Gb  mac_mcu.o [1]
macMcuOverflowCapture   0x0020acb1    0x4c  Code  Gb  mac_mcu.o [1]
macMcuOverflowCount     0x0020ac5f    0x52  Code  Gb  mac_mcu.o [1]
macMcuOverflowSetCompare
                        0x0020ad6f    0x8e  Code  Gb  mac_mcu.o [1]
macMcuOverflowSetCount  0x0020acfd    0x72  Code  Gb  mac_mcu.o [1]
macMcuOverflowSetPeriod
                        0x0020adfd    0x8e  Code  Gb  mac_mcu.o [1]
macMcuRandomByte        0x0020abdd    0x1e  Code  Gb  mac_mcu.o [1]
macMcuRandomWord        0x0020abfb    0x2a  Code  Gb  mac_mcu.o [1]
macMcuRecordMaxRssiStart
                        0x0020af8d    0x16  Code  Gb  mac_mcu.o [1]
macMcuRecordMaxRssiStop
                        0x0020afa3    0x14  Code  Gb  mac_mcu.o [1]
macMcuRfErrIsr          0x0020af6b    0x22  Code  Gb  mac_mcu.o [1]
macMcuRfIsr             0x0020aee5    0x86  Code  Gb  mac_mcu.o [1]
macMcuTimer2Isr         0x0020ae8b    0x5a  Code  Gb  mac_mcu.o [1]
macMcuTimerCapture      0x0020ac25    0x3a  Code  Gb  mac_mcu.o [1]
macMemReadRam           0x002188a1    0x14  Code  Gb  mac_mem.o [1]
macMemReadRxFifo        0x002188d7    0x22  Code  Gb  mac_mem.o [1]
macMemWriteRam          0x0021888d    0x14  Code  Gb  mac_mem.o [1]
macMemWriteTxFifo       0x002188b5    0x22  Code  Gb  mac_mem.o [1]
macMgmt                 0x200041a0     0x4  Data  Gb  mac_beacon.o [4]
macMgmtAction1          0x0020ce40    0x1c  Data  Gb  mac_beacon.o [4]
macMgmtAction2          0x0020ce5c    0x14  Data  Gb  mac_beacon.o [4]
macNoAction             0x0020c4b9     0x2  Code  Gb  mac_beacon.o [4]
macPanConflictComplete  0x0020bce5     0x2  Code  Gb  mac_beacon.o [4]
macPanCoordinator       0x2000410d     0x1  Data  Gb  mac_beacon.o [4]
macPhyChannel           0x2000510c     0x1  Data  Gb  mac_radio.o [1]
macPhyTxPower           0x2000510b     0x1  Data  Gb  mac_radio.o [1]
macPib                  0x20004cc8    0x4c  Data  Gb  mac_pib.o [1]
macPibDefaults          0x00219fec    0x4c  Data  Lc  mac_pib.o [1]
macPibIndex             0x00213301    0x2e  Code  Lc  mac_pib.o [1]
macPibReset             0x002132e1    0x20  Code  Gb  mac_pib.o [1]
macPibTbl               0x00219f04    0x90  Data  Lc  mac_pib.o [1]
macPollDataReqComplete  0x0020bb81    0x2c  Code  Gb  mac_beacon.o [4]
macPollDataRxInd        0x0020bbad    0x60  Code  Gb  mac_beacon.o [4]
macPollFrameResponseTimeout
                        0x0020bc11    0x24  Code  Gb  mac_beacon.o [4]
macPollRxAssocRsp       0x0020bc75    0x14  Code  Gb  mac_beacon.o [4]
macPollRxDisassoc       0x0020bc59    0x12  Code  Gb  mac_beacon.o [4]
macPollingSt            0x0020be30    0x64  Data  Gb  mac_beacon.o [4]
macPwr                  0x200050dc     0x4  Data  Gb  mac_beacon.o [4]
macRadioComputeLQI      0x002132d1    0x10  Code  Gb  mac_radio.o [1]
macRadioDefsTxPwrBare   0x0021a0e0    0x24  Data  Gb  mac_radio_defs.o [1]
macRadioEnergyDetectStart
                        0x0021327d     0x8  Code  Gb  mac_radio.o [1]
macRadioEnergyDetectStop
                        0x00213285    0x1a  Code  Gb  mac_radio.o [1]
macRadioInit            0x00212ff1    0x1a  Code  Gb  mac_radio.o [1]
macRadioRandomByte      0x00213017     0x8  Code  Gb  mac_radio.o [1]
macRadioReset           0x0021300b     0xc  Code  Gb  mac_radio.o [1]
macRadioSetChannel      0x00213117    0x3e  Code  Gb  mac_radio.o [1]
macRadioSetIEEEAddr     0x00213067    0x10  Code  Gb  mac_radio.o [1]
macRadioSetPanCoordinator
                        0x0021301f    0x20  Code  Gb  mac_radio.o [1]
macRadioSetPanID        0x0021303f    0x14  Code  Gb  mac_radio.o [1]
macRadioSetShortAddr    0x00213053    0x14  Code  Gb  mac_radio.o [1]
macRadioSetTxPower      0x00213077    0x58  Code  Gb  mac_radio.o [1]
macRadioStartScan       0x002131b7    0x5c  Code  Gb  mac_radio.o [1]
macRadioStopScan        0x00213213    0x22  Code  Gb  mac_radio.o [1]
macRadioTurnOnPower     0x00219459    0x68  Code  Gb  mac_radio_defs.o [1]
macRadioUpdateChannel   0x00213155    0x62  Code  Gb  mac_radio.o [1]
macRadioUpdateTxPower   0x002130cf    0x48  Code  Gb  mac_radio.o [1]
macReset                0x20004134    0x1c  Data  Gb  mac_beacon.o [4]
macRxAckTxDoneCallback  0x002161cb    0x16  Code  Gb  mac_rx.o [1]
macRxActive             0x2000510f     0x1  Data  Gb  mac_rx.o [1]
macRxAddrLen            0x0021a534     0x4  Data  Lc  mac_rx.o [1]
macRxAssocRsp           0x0020b989    0xa0  Code  Gb  mac_beacon.o [4]
macRxBeacon             0x0020c71d    0x98  Code  Gb  mac_beacon.o [4]
macRxCheckMACPendingCallback
                        0x0020b1c1    0x2e  Code  Gb  mac_beacon.o [4]
macRxCheckPendingCallback
                        0x0020b1a3    0x1e  Code  Gb  mac_beacon.o [4]
macRxCompleteCallback   0x0020b213    0xca  Code  Gb  mac_beacon.o [4]
macRxCoordRealign       0x0020bc89    0x5c  Code  Gb  mac_beacon.o [4]
macRxDisable            0x00214fff    0x3a  Code  Gb  mac_rx_onoff.o [1]
macRxDisassoc           0x0020c6c5    0x58  Code  Gb  mac_beacon.o [4]
macRxEnable             0x00214f97    0x36  Code  Gb  mac_rx_onoff.o [1]
macRxEnableFlags        0x2000511b     0x1  Data  Gb  mac_rx_onoff.o [1]
macRxFifoOverflowIsr    0x0021628d    0x12  Code  Gb  mac_rx.o [1]
macRxFilter             0x20005110     0x1  Data  Gb  mac_rx.o [1]
macRxHaltCleanup        0x00215953    0x22  Code  Gb  mac_rx.o [1]
macRxHardDisable        0x00215039    0x3e  Code  Gb  mac_rx_onoff.o [1]
macRxInit               0x002158ad    0x4c  Code  Gb  mac_rx.o [1]
macRxOff                0x0021510f    0x62  Code  Gb  mac_rx_onoff.o [1]
macRxOffRequest         0x0021509f    0x40  Code  Gb  mac_rx_onoff.o [1]
macRxOn                 0x002150df    0x30  Code  Gb  mac_rx_onoff.o [1]
macRxOnFlag             0x2000511a     0x1  Data  Gb  mac_rx_onoff.o [1]
macRxOnOffInit          0x00214f89     0xe  Code  Gb  mac_rx_onoff.o [1]
macRxOnRequest          0x00215077    0x28  Code  Gb  mac_rx_onoff.o [1]
macRxOutgoingAckFlag    0x20005111     0x1  Data  Gb  mac_rx.o [1]
macRxPromiscuousMode    0x0021629f    0x42  Code  Gb  mac_rx.o [1]
macRxRadioPowerUpInit   0x002158f9    0x44  Code  Gb  mac_rx.o [1]
macRxSoftEnable         0x00214fcd    0x32  Code  Gb  mac_rx_onoff.o [1]
macRxThresholdIsr       0x00215a0d    0x3c  Code  Gb  mac_rx.o [1]
macRxTxReset            0x0021593d    0x16  Code  Gb  mac_rx.o [1]
macScanAction           0x0020ce70    0x18  Data  Gb  mac_beacon.o [4]
macScanComplete         0x0020cbb3    0x38  Code  Gb  mac_beacon.o [4]
macScanFailedInProgress
                        0x0020cbeb    0x1c  Code  Gb  mac_beacon.o [4]
macScanNextChan         0x0020c973    0xb4  Code  Gb  mac_beacon.o [4]
macScanRxBeacon         0x0020ca7b    0xb2  Code  Gb  mac_beacon.o [4]
macScanRxCoordRealign   0x0020cb2d    0x86  Code  Gb  mac_beacon.o [4]
macScanStartTimer       0x0020ca27    0x4a  Code  Gb  mac_beacon.o [4]
macScanningSt           0x00219d30    0x68  Data  Gb  mac_beacon.o [4]
macSendDataMsg          0x0020bfd5    0x82  Code  Gb  mac_beacon.o [4]
macSendMsg              0x0020bf5b    0x74  Code  Gb  mac_beacon.o [4]
macSendMsgBufSize       0x0020c058     0xc  Data  Gb  mac_beacon.o [4]
macSendMsgDataSize      0x0020c064     0xc  Data  Gb  mac_beacon.o [4]
macSetEvent             0x0020bd71     0x4  Code  Gb  mac_beacon.o [4]
macSetSched             0x0020b339     0xa  Code  Gb  mac_beacon.o [4]
macSleepState           0x20004313     0x1  Data  Gb  mac_sleep.o [1]
macSleepWakeUp          0x00219009    0x5c  Code  Gb  mac_sleep.o [1]
macSrcMatchCheckEnableBit
                        0x00217945    0x12  Code  Lc  mac_autopend.o [1]
macSrcMatchCheckSrcAddr
                        0x00217791    0xb4  Code  Lc  mac_autopend.o [1]
macSrcMatchFindEmptyEntry
                        0x00217715    0x7c  Code  Lc  mac_autopend.o [1]
macSrcMatchGetExtAddrEnableBit
                        0x00217999    0x16  Code  Lc  mac_autopend.o [1]
macSrcMatchGetExtAddrPendEnBit
                        0x0021796d    0x16  Code  Lc  mac_autopend.o [1]
macSrcMatchGetShortAddrEnableBit
                        0x00217983    0x16  Code  Lc  mac_autopend.o [1]
macSrcMatchGetShortAddrPendEnBit
                        0x00217957    0x16  Code  Lc  mac_autopend.o [1]
macSrcMatchIsAckAllPending
                        0x20005108     0x1  Data  Gb  mac_autopend.o [1]
macSrcMatchIsEnabled    0x20005107     0x1  Data  Gb  mac_autopend.o [1]
macSrcMatchSetEnableBit
                        0x002178a3    0xa2  Code  Lc  mac_autopend.o [1]
macSrcMatchSetPendEnBit
                        0x00217845    0x5e  Code  Lc  mac_autopend.o [1]
macStartFrameResponseTimer
                        0x0020b7f9    0x3e  Code  Gb  mac_beacon.o [4]
macStartResponseTimer   0x0020b7e3    0x16  Code  Gb  mac_beacon.o [4]
macStateTbl             0x20004150    0x14  Data  Gb  mac_beacon.o [4]
macTaskId               0x2000410c     0x1  Data  Gb  mac_beacon.o [4]
macTaskInit             0x0020c071     0x6  Code  Gb  mac_beacon.o [4]
macTimer                0x0020cdab    0x12  Code  Gb  mac_beacon.o [4]
macTimerCancel          0x0020cdd7    0x4c  Code  Gb  mac_beacon.o [4]
macTimerInit            0x0020cc0f    0x16  Code  Gb  mac_beacon.o [4]
macTxAckNotReceivedCallback
                        0x00216a05    0x40  Code  Gb  mac_tx.o [1]
macTxAckReceivedCallback
                        0x002169a1    0x64  Code  Gb  mac_tx.o [1]
macTxActive             0x2000511c     0x1  Data  Gb  mac_tx.o [1]
macTxBe                 0x2000511e     0x1  Data  Gb  mac_tx.o [1]
macTxChannelBusyCallback
                        0x002168d5    0x72  Code  Gb  mac_tx.o [1]
macTxCompleteCallback   0x0020b393    0xf6  Code  Gb  mac_beacon.o [4]
macTxCsmaBackoffDelay   0x2000511f     0x1  Data  Gb  mac_tx.o [1]
macTxDoneCallback       0x00216947    0x5a  Code  Gb  mac_tx.o [1]
macTxFrame              0x0021663f   0x17a  Code  Gb  mac_tx.o [1]
macTxFrameFailed        0x0020b7b4     0xc  Data  Gb  mac_beacon.o [4]
macTxFrameRetransmit    0x00216875    0x12  Code  Gb  mac_tx.o [1]
macTxFrameSuccess       0x0020b7a8     0xc  Data  Gb  mac_beacon.o [4]
macTxGpInterframeDelay  0x20005120     0x1  Data  Gb  mac_tx.o [1]
macTxInit               0x0021662d    0x12  Code  Gb  mac_tx.o [1]
macTxStartQueuedFrame   0x00216887    0x4e  Code  Gb  mac_tx.o [1]
macTxTimestampCallback  0x00216a6b    0x24  Code  Gb  mac_tx.o [1]
macTxType               0x2000511d     0x1  Data  Gb  mac_tx.o [1]
mac_msg_deallocate      0x0020c183    0x40  Code  Gb  mac_beacon.o [4]
main                    0x002194e9    0xd8  Code  Gb  ZMain.o [1]
markPage                0x00210fa1    0x2c  Code  Lc  osal_nv.o [1]
maxRssi                 0x20005109     0x1  Data  Lc  mac_mcu.o [1]
mcuRecordMaxRssiIsr     0x0020afb7    0x18  Code  Lc  mac_mcu.o [1]
memcpy                  0x00210b49     0xc  Code  Gb  memcpy.o [6]
memset                  0x00203eb7    0x14  Code  Gb  memset.o [6]
monthLength             0x00212ef1    0x26  Code  Lc  OSAL_Clock.o [1]
mtProcessIncoming       0x200041dc    0x48  Data  Gb  MT.o [1]
nb                      0x20005121     0x1  Data  Lc  mac_tx.o [1]
neighborTable           0x20004ae8    0x70  Data  Gb  nwk_globals.o [1]
nlmeAddConflictedAddrTable
                        0x00208eb7    0x78  Code  Lc  nwk_util.o [3]
nsduHandleCounter       0x2000515a     0x1  Data  Gb  nwk_util.o [3]
nwkApplyNwkSec          0x0020d091    0x36  Code  Lc  nwk.o [3]
nwkBroadcast_qHead      0x200050e4     0x4  Data  Lc  nwk_bufs.o [3]
nwkBuildDataCnf         0x0020d161    0x42  Code  Gb  nwk.o [3]
nwkConvertLqiToCost     0x00209493    0x22  Code  Gb  nwk_util.o [3]
nwkDB_Add               0x00213e3b    0x92  Code  Gb  nwk_bufs.o [3]
nwkDB_CreateHdr         0x00213e15    0x26  Code  Gb  nwk_bufs.o [3]
nwkDB_DeleteRecAll      0x00213f4f    0x2c  Code  Gb  nwk_bufs.o [3]
nwkDB_FindHandle        0x00213eeb    0x18  Code  Gb  nwk_bufs.o [3]
nwkDB_FindMatch         0x00213f03    0x26  Code  Gb  nwk_bufs.o [3]
nwkDB_FindNextIndirectHold
                        0x00213df3    0x22  Code  Lc  nwk_bufs.o [3]
nwkDB_FindNextType      0x00213ecd    0x1e  Code  Gb  nwk_bufs.o [3]
nwkDB_RemoveFromList    0x00213f29    0x26  Code  Gb  nwk_bufs.o [3]
nwkDB_UserDataLoad      0x00208ea5    0x12  Code  Gb  nwk_util.o [3]
nwkDataBufQueue         0x200050e0     0x4  Data  Gb  nwk_bufs.o [3]
nwkFrameCounter         0x2000500c     0x4  Data  Gb  ssp.o [3]
nwkFrameCounterChanges  0x20005008     0x2  Data  Gb  ssp.o [3]
nwkMsgProcs             0x0020d058    0x38  Data  Gb  nwk.o [3]
nwkNeighborAdd          0x002094b5    0x50  Code  Gb  nwk_util.o [3]
nwkNeighborCheckAddr    0x0020930b    0x4e  Code  Gb  nwk_util.o [3]
nwkNeighborFind         0x00209165    0x32  Code  Gb  nwk_util.o [3]
nwkNeighborFindEmptySlot
                        0x0020919d    0x56  Code  Gb  nwk_util.o [3]
nwkNeighborFindRandom   0x0020935b    0xfa  Code  Gb  nwk_util.o [3]
nwkNeighborGetLinkInfo  0x002092cb    0x40  Code  Gb  nwk_util.o [3]
nwkNeighborInitTable    0x00209125    0x40  Code  Gb  nwk_util.o [3]
nwkNeighborKeepPANID    0x00209293    0x38  Code  Gb  nwk_util.o [3]
nwkNeighborRemove       0x002091f9    0x84  Code  Gb  nwk_util.o [3]
nwkNeighborUpdateNwkAddr
                        0x00209457    0x3c  Code  Gb  nwk_util.o [3]
nwkPanIdList            0x200042b8     0x4  Data  Lc  nwk_util.o [3]
nwkPollConfirmProcessing
                        0x0020d927    0x44  Code  Lc  nwk.o [3]
nwkSendMTOReq           0x2000515e     0x1  Data  Gb  nwk.o [3]
nwkStateIdle            0x2000515f     0x1  Data  Lc  nwk.o [3]
nwkStatus               0x20005147     0x1  Data  Gb  ZDApp.o [1]
nwk_BeaconFromNative    0x0020d8c5    0x62  Code  Gb  nwk.o [3]
nwk_ExtPANIDValid       0x00209505    0x1e  Code  Gb  nwk_util.o [3]
nwk_MacDataBuffersAdd   0x00213c77    0xf8  Code  Gb  nwk_bufs.o [3]
nwk_MacDataBuffersDealloc
                        0x00213d6f    0x84  Code  Gb  nwk_bufs.o [3]
nwk_MacDataBuffersFull  0x00213c31    0x46  Code  Gb  nwk_bufs.o [3]
nwk_ScanJoiningOrphan   0x0020d6ad    0xce  Code  Gb  nwk.o [3]
nwk_SendNextDataBuf     0x00213c0f    0x22  Code  Gb  nwk_bufs.o [3]
nwk_Status              0x002148c7    0x86  Code  Gb  nwk_globals.o [1]
nwk_UpdateStatistics    0x002149a1     0x2  Code  Gb  nwk_globals.o [1]
nwk_adjustDelay         0x002149a3    0x62  Code  Gb  nwk_globals.o [1]
nwk_associate_cnf_processing
                        0x0020d589    0xc6  Code  Lc  nwk.o [3]
nwk_beacon_notify_ind_processing
                        0x0020d77b    0xc8  Code  Lc  nwk.o [3]
nwk_broadcastReceive    0x00213fc1    0x42  Code  Gb  nwk_bufs.o [3]
nwk_broadcastSend       0x00213f7b    0x46  Code  Gb  nwk_bufs.o [3]
nwk_data_cnf_processing
                        0x0020d1cd    0x94  Code  Lc  nwk.o [3]
nwk_data_ind_processing
                        0x0020d305   0x22a  Code  Lc  nwk.o [3]
nwk_data_req_send       0x0020d0c7    0x9a  Code  Gb  nwk.o [3]
nwk_desc_list_free      0x0020d8a1    0x1a  Code  Gb  nwk.o [3]
nwk_event_loop          0x0020cebf   0x194  Code  Gb  nwk.o [3]
nwk_getNetworkDesc      0x0020d843    0x4e  Code  Gb  nwk.o [3]
nwk_getNwkDescList      0x0020d891     0x6  Code  Gb  nwk.o [3]
nwk_globals_init        0x002147a1     0xa  Code  Gb  nwk_globals.o [1]
nwk_indSendError        0x0020d535    0x54  Code  Lc  nwk.o [3]
nwk_init                0x0020ce89    0x36  Code  Gb  nwk.o [3]
nwk_process_dstAddr     0x0020d261    0xa4  Code  Lc  nwk.o [3]
nwk_scan_cnf_processing
                        0x0020d64f    0x5e  Code  Lc  nwk.o [3]
nwk_set_poll_evt        0x0020d1a3    0x2a  Code  Gb  nwk.o [3]
nwk_stateIdle           0x0020d96b     0x6  Code  Gb  nwk.o [3]
nwkbufs_init            0x00213c05     0xa  Code  Gb  nwk_bufs.o [3]
osalAddTimer            0x0020429d    0x7a  Code  Gb  OSAL_Timers.o [1]
osalAdjustTimer         0x00212d43    0x1a  Code  Gb  OSAL_Clock.o [1]
osalClockUpdate         0x00212ce9    0x5a  Code  Lc  OSAL_Clock.o [1]
osalDeleteTimer         0x00204339     0xa  Code  Gb  OSAL_Timers.o [1]
osalFindTimer           0x00204317    0x22  Code  Gb  OSAL_Timers.o [1]
osalInitTasks           0x002045b1    0x88  Code  Gb  OSAL_SampleSw.o [1]
osalMemStat             0x2000512e     0x1  Data  Lc  OSAL_Memory.o [1]
osalTimerInit           0x00204295     0x8  Code  Gb  OSAL_Timers.o [1]
osalTimerUpdate         0x0020445b   0x130  Code  Gb  OSAL_Timers.o [1]
osal_ConvertUTCSecs     0x00212f17    0xca  Code  Gb  OSAL_Clock.o [1]
osal_ConvertUTCTime     0x00212d85   0x16c  Code  Gb  OSAL_Clock.o [1]
osal_GetSystemClock     0x0020458b     0x6  Code  Gb  OSAL_Timers.o [1]
osal_buffer_uint24      0x002026d7    0x12  Code  Gb  OSAL.o [1]
osal_buffer_uint32      0x002026bf    0x18  Code  Gb  OSAL.o [1]
osal_build_uint16       0x00201ff7     0xc  Code  Gb  OSAL.o [1]
osal_build_uint32       0x00202003    0x46  Code  Gb  OSAL.o [1]
osal_clear_event        0x00202579    0x46  Code  Gb  OSAL.o [1]
osal_getClock           0x00212d7f     0x6  Code  Gb  OSAL_Clock.o [1]
osal_get_timeoutEx      0x00204419    0x42  Code  Gb  OSAL_Timers.o [1]
osal_init_system        0x002025eb    0x20  Code  Gb  OSAL.o [1]
osal_int_disable        0x002025d5    0x16  Code  Gb  OSAL.o [1]
osal_int_enable         0x002025bf    0x16  Code  Gb  OSAL.o [1]
osal_isbufset           0x002026e9    0x30  Code  Gb  OSAL.o [1]
osal_mem_alloc          0x0020364b   0x136  Code  Gb  OSAL_Memory.o [1]
osal_mem_free           0x00203781    0x52  Code  Gb  OSAL_Memory.o [1]
osal_mem_init           0x002035e1    0x2c  Code  Gb  OSAL_Memory.o [1]
osal_mem_kick           0x0020360d    0x3e  Code  Gb  OSAL_Memory.o [1]
osal_memcmp             0x00201fb7    0x2a  Code  Gb  OSAL.o [1]
osal_memcpy             0x00201f99    0x1e  Code  Gb  OSAL.o [1]
osal_memset             0x00201fe1    0x16  Code  Gb  OSAL.o [1]
osal_msg_allocate       0x00202229    0x32  Code  Gb  OSAL.o [1]
osal_msg_deallocate     0x0020225b    0x28  Code  Gb  OSAL.o [1]
osal_msg_dequeue        0x0020241f    0x3e  Code  Gb  OSAL.o [1]
osal_msg_enqueue        0x002023d9    0x46  Code  Gb  OSAL.o [1]
osal_msg_enqueue_max    0x002024c9    0x6a  Code  Gb  OSAL.o [1]
osal_msg_enqueue_push   0x00202297    0x70  Code  Lc  OSAL.o [1]
osal_msg_extract        0x00202485    0x44  Code  Gb  OSAL.o [1]
osal_msg_find           0x0020238d    0x46  Code  Gb  OSAL.o [1]
osal_msg_push           0x0020245d    0x28  Code  Gb  OSAL.o [1]
osal_msg_receive        0x00202307    0x86  Code  Gb  OSAL.o [1]
osal_msg_send           0x00202283    0x14  Code  Gb  OSAL.o [1]
osal_nv_delete          0x00211f15    0x5a  Code  Gb  osal_nv.o [1]
osal_nv_init            0x00211af9     0xa  Code  Gb  osal_nv.o [1]
osal_nv_item_init       0x00211b03    0x58  Code  Gb  osal_nv.o [1]
osal_nv_item_len        0x00211b5b    0x5a  Code  Gb  osal_nv.o [1]
osal_nv_read            0x00211e6d    0x8e  Code  Gb  osal_nv.o [1]
osal_nv_write           0x00211bc5   0x29e  Code  Gb  osal_nv.o [1]
osal_pwrmgr_init        0x0020459d     0xe  Code  Gb  OSAL_PwrMgr.o [1]
osal_qHead              0x20005070     0x4  Data  Gb  OSAL.o [1]
osal_rand               0x00202221     0x8  Code  Gb  OSAL.o [1]
osal_run_system         0x00202613    0xac  Code  Gb  OSAL.o [1]
osal_setClock           0x00212d5d    0x22  Code  Gb  OSAL_Clock.o [1]
osal_set_event          0x00202533    0x46  Code  Gb  OSAL.o [1]
osal_start_reload_timer
                        0x00204387    0x4e  Code  Gb  OSAL_Timers.o [1]
osal_start_system       0x0020260b     0x8  Code  Gb  OSAL.o [1]
osal_start_timerEx      0x00204343    0x44  Code  Gb  OSAL_Timers.o [1]
osal_stop_timerEx       0x002043d5    0x44  Code  Gb  OSAL_Timers.o [1]
osal_strlen             0x00201f8d     0xc  Code  Gb  OSAL.o [1]
osal_systemClock        0x20005088     0x4  Data  Lc  OSAL_Timers.o [1]
pAPSDupRej              0x20004260     0x4  Data  Lc  APS.o [3]
pAPSF_IgnoreBlock       0x200042cc     0x4  Data  Gb  aps_frag.o [3]
pAPS_BindingTimeoutCB   0x2000425c     0x4  Data  Gb  APS.o [3]
pAPS_DataConfirmReflect
                        0x20004f40     0x4  Data  Gb  APS.o [3]
pAPS_DataIndReflect     0x20004f44     0x4  Data  Gb  APS.o [3]
pAPS_GetBind            0x20004f3c     0x4  Data  Gb  APS.o [3]
pAPS_UnBind             0x20004f38     0x4  Data  Gb  APS.o [3]
pBeaconIndBuf           0x2000506c     0x4  Data  Gb  MT_ZDO.o [1]
pBindInitNV             0x20005028     0x4  Data  Gb  BindingTable.o [1]
pBindRestoreFromNV      0x20005030     0x4  Data  Gb  BindingTable.o [1]
pBindSetDefaultNV       0x2000502c     0x4  Data  Gb  BindingTable.o [1]
pBindWriteNV            0x20005034     0x4  Data  Gb  BindingTable.o [1]
pFuncRxState            0x20005054     0x4  Data  Lc  mac_rx.o [1]
pHal_KeyProcessFunction
                        0x2000503c     0x4  Data  Lc  hal_key.o [1]
pMacDataTx              0x200041c4     0x4  Data  Gb  mac_beacon.o [4]
pMsg                    0x20005068     0x4  Data  Gb  MT_UART.o [1]
pMtAfDataReq            0x20005064     0x4  Data  Gb  MT_AF.o [1]
pMtAfInMsgList          0x20005060     0x4  Data  Gb  MT_AF.o [1]
pNLME_NetworkFormationConfirm
                        0x20004fbc     0x4  Data  Gb  NLMEDE.o [3]
pNLME_ProcessLinkStatus
                        0x20004fa4     0x4  Data  Gb  nwk_util.o [3]
pNLME_SetLinkStatusTimer
                        0x20004f9c     0x4  Data  Gb  nwk_util.o [3]
pNLME_UpdateLinkStatus  0x20004fa0     0x4  Data  Gb  nwk_util.o [3]
pNwkFreqAgilityIncErrorCnt
                        0x20004fb0     0x4  Data  Gb  nwk_util.o [3]
pNwkFreqAgilityIncTotalTx
                        0x20004fac     0x4  Data  Gb  nwk_util.o [3]
pNwkFreqAgilityScanCfg  0x20004fa8     0x4  Data  Gb  nwk_util.o [3]
pRandomSeedCB           0x20005050     0x4  Data  Lc  mac_mcu.o [1]
pRxBuf                  0x20005058     0x4  Data  Lc  mac_rx.o [1]
pSspAesEncrypt          0x20005038     0x4  Data  Gb  hal_aes.o [1]
pZMac_AppCallback       0x200050c4     0x4  Data  Gb  zmac_cb.o [1]
pbindAddEntry           0x2000501c     0x4  Data  Gb  BindingTable.o [1]
pbindNumOfEntries       0x20005020     0x4  Data  Gb  BindingTable.o [1]
pbindRemoveDev          0x20005024     0x4  Data  Gb  BindingTable.o [1]
pfnPortAIsr             0x20004b58    0x20  Data  Lc  io_pin_int.o [5]
pfnPortBIsr             0x20004b78    0x20  Data  Lc  io_pin_int.o [5]
pfnPortCIsr             0x20004b98    0x20  Data  Lc  io_pin_int.o [5]
pfnPortDIsr             0x20004e7c    0x20  Data  Lc  io_pin_int.o [5]
pfnPreProcessDataReq    0x200050c8     0x4  Data  Lc  APSMEDE.o [3]
pgLost                  0x20004f60     0xc  Data  Lc  osal_nv.o [1]
pgOff                   0x20004f54     0xc  Data  Lc  osal_nv.o [1]
pgRes                   0x2000512f     0x1  Data  Lc  osal_nv.o [1]
plugins                 0x20005090     0x4  Data  Lc  zcl.o [1]
pnwk_ScanJoiningOrphan  0x200050ec     0x4  Data  Gb  NLMEDE.o [3]
pnwk_ScanPANChanSelect  0x20004fb4     0x4  Data  Gb  NLMEDE.o [3]
pnwk_ScanPANChanVerify  0x20004fb8     0x4  Data  Gb  NLMEDE.o [3]
preBlinkState           0x20005105     0x1  Data  Lc  hal_led.o [1]
procRx                  0x0020816f    0x48  Code  Lc  hal_uart.o [1]
procTx                  0x002081b7    0x3e  Code  Lc  hal_uart.o [1]
pulStack                0x20006964   0x800  Data  Lc  startup_ewarm.o [1]
pwrmgr_attribute        0x20004fd0     0x8  Data  Gb  OSAL_PwrMgr.o [1]
radioComputeED          0x0021329f    0x32  Code  Lc  mac_radio.o [1]
rawAFMsg                0x2000509c     0x4  Data  Lc  zcl.o [1]
readHdr                 0x002115af    0x2c  Code  Lc  osal_nv.o [1]
readPgHdr               0x002115db    0x2c  Code  Lc  osal_nv.o [1]
recRst                  0x00208135    0x3a  Code  Lc  hal_uart.o [1]
reflectID               0x200042d1     0x1  Data  Lc  reflecttrack.o [3]
reflectMAXEntries       0x200042d0     0x1  Data  Lc  reflecttrack.o [3]
reflectMAXIndirects     0x20004311     0x1  Data  Lc  reflecttrack.o [3]
reflectMAXSimultaneous  0x20004310     0x1  Data  Lc  reflecttrack.o [3]
reflectTrack_AddNewEntry
                        0x00216fa3    0x66  Code  Gb  reflecttrack.o [3]
reflectTrack_FindHandle
                        0x00217009    0x2a  Code  Gb  reflecttrack.o [3]
reflectTrack_GetNewEntry
                        0x00216f79    0x2a  Code  Gb  reflecttrack.o [3]
reflectTrack_RemoveEntryNotify
                        0x0020e0d1    0x4c  Code  Gb  APS.o [3]
reflectTrack_UpdateOption
                        0x00217033    0x2e  Code  Gb  reflecttrack.o [3]
reflectTrackingHdr      0x200042d4     0x4  Data  Lc  reflecttrack.o [3]
reflectTracking_GetMaxIndirectAdjusted
                        0x00216f4d    0x2c  Code  Gb  reflecttrack.o [3]
reflectTracking_GetMaxSimultaneousAdjusted
                        0x00216f21    0x2c  Code  Gb  reflecttrack.o [3]
registeredKeysTaskID    0x20004315     0x1  Data  Lc  OnBoard.o [1]
reqChannel              0x2000510d     0x1  Data  Lc  mac_radio.o [1]
reqTxPower              0x2000510e     0x1  Data  Lc  mac_radio.o [1]
retryCnt                0x2000514b     0x1  Data  Gb  ZDApp.o [1]
rreqCounter             0x2000515c     0x1  Data  Gb  rtg.o [3]
rtDiscTable             0x20004c28    0x50  Data  Gb  nwk_globals.o [1]
rtgIsValidNeighbor      0x00209bf9    0x48  Code  Lc  rtg.o [3]
rtgSrcRelayList         0x20004eb8    0x18  Data  Gb  nwk_globals.o [1]
rtgTable                0x20004930   0x140  Data  Gb  nwk_globals.o [1]
rxAddrIsr               0x00215f25    0xe4  Code  Lc  mac_rx.o [1]
rxBuf                   0x2000505c     0x4  Data  Lc  mac_rx.o [1]
rxCB                    0x00203489    0x18  Code  Lc  zcl_samplesw.o [1]
rxDiscardFrame          0x002161f1    0x46  Code  Lc  mac_rx.o [1]
rxDiscardIsr            0x00216239    0x54  Code  Lc  mac_rx.o [1]
rxDone                  0x00216199    0x32  Code  Lc  mac_rx.o [1]
rxFcsIsr                0x00216081   0x118  Code  Lc  mac_rx.o [1]
rxFifoOverflowCount     0x20005119     0x1  Data  Lc  mac_rx.o [1]
rxFilter                0x20005115     0x1  Data  Lc  mac_rx.o [1]
rxHaltCleanupFinalStep  0x00215975    0x98  Code  Lc  mac_rx.o [1]
rxIsrActiveFlag         0x20005117     0x1  Data  Lc  mac_rx.o [1]
rxNextLen               0x20005113     0x1  Data  Lc  mac_rx.o [1]
rxPayloadIsr            0x00216049    0x36  Code  Lc  mac_rx.o [1]
rxPayloadLen            0x20005114     0x1  Data  Lc  mac_rx.o [1]
rxPostRxUpdates         0x002161e1    0x10  Code  Lc  mac_rx.o [1]
rxPrepPayload           0x00216009    0x3e  Code  Lc  mac_rx.o [1]
rxPromiscuousMode       0x20005116     0x1  Data  Lc  mac_rx.o [1]
rxResetFlag             0x20005118     0x1  Data  Lc  mac_rx.o [1]
rxStartIsr              0x00215a49   0x4dc  Code  Lc  mac_rx.o [1]
rxUnreadLen             0x20005112     0x1  Data  Lc  mac_rx.o [1]
sAddrCmp                0x00209c69    0x48  Code  Gb  saddr.o [1]
sAddrCpy                0x00209cb1    0x20  Code  Gb  saddr.o [1]
sAddrExtCmp             0x00209cd1    0x2c  Code  Gb  saddr.o [1]
sAddrExtCpy             0x00209cfd    0x12  Code  Gb  saddr.o [1]
sClearLine              0x00208292     0x2  Data  Gb  zcl_samplesw.o [1]
sCmdSent                0x0021a3ac    0x10  Data  Gb  zcl_samplesw.o [1]
sDeviceName             0x0021a38c    0x10  Data  Gb  zcl_samplesw.o [1]
sSwEZMode               0x0021a39c    0x10  Data  Gb  zcl_samplesw.o [1]
sSwHelp                 0x0021a444     0xc  Data  Gb  zcl_samplesw.o [1]
sSwLight                0x0021a254    0x14  Data  Gb  zcl_samplesw.o [1]
s_bcMask                0x20005159     0x1  Data  Lc  nwk_util.o [3]
sampleSw_TestEp         0x20004294    0x10  Data  Lc  zcl_samplesw.o [1]
saveExtAddr             0x200042bc     0x8  Data  Gb  nwk_util.o [3]
savedResponseRate       0x200050fc     0x2  Data  Gb  NLMEDE.o [3]
sendAccelermeter        0x00203031   0x2f2  Code  Lc  zcl_samplesw.o [1]
setItem                 0x0021149b    0x88  Code  Lc  osal_nv.o [1]
sspAesEncryptHW         0x0020fd11    0x26  Code  Gb  hal_aes.o [1]
sspMMOHash              0x002189a5   0x1b6  Code  Gb  ssp_hash.o [3]
ssp_HW_KeyInit          0x0020fd01     0xe  Code  Gb  hal_aes.o [1]
state                   0x20005129     0x1  Data  Gb  MT_UART.o [1]
strcat                  0x00204029    0x1c  Code  Gb  strcat.o [6]
strlen                  0x00203e81          Code  Gb  strlen.o [8]
tasksArr                0x0021a104    0x24  Data  Gb  OSAL_SampleSw.o [1]
tasksCnt                0x00218bb3     0x1  Data  Gb  OSAL_SampleSw.o [1]
tasksEvents             0x20005080     0x4  Data  Gb  OSAL_SampleSw.o [1]
tempDataLen             0x2000512c     0x1  Data  Gb  MT_UART.o [1]
theHeap                 0x20005164  0x1800  Data  Lc  OSAL_Memory.o [1]
timeMSec                0x20005074     0x4  Data  Lc  OSAL_Clock.o [1]
timerAlignedQ           0x200041cc     0x4  Data  Gb  mac_beacon.o [4]
timerHead               0x20005084     0x4  Data  Gb  OSAL_Timers.o [1]
timerUnalignedQ         0x200041c8     0x4  Data  Gb  mac_beacon.o [4]
txAckReq                0x20005123     0x1  Data  Lc  mac_tx.o [1]
txComplete              0x00216a45    0x26  Code  Lc  mac_tx.o [1]
txCsmaGo                0x00216849    0x2c  Code  Lc  mac_tx.o [1]
txCsmaPrep              0x002167b9    0x2c  Code  Lc  mac_tx.o [1]
txGo                    0x00216813    0x36  Code  Lc  mac_tx.o [1]
txGreenPowerPrep        0x002167e5    0x2e  Code  Lc  mac_tx.o [1]
txMT                    0x20005106     0x1  Data  Lc  hal_uart.o [1]
txRetransmitFlag        0x20005124     0x1  Data  Lc  mac_tx.o [1]
txSeqn                  0x20005122     0x1  Data  Lc  mac_tx.o [1]
uartRecord              0x20004dec    0x2c  Data  Lc  hal_uart.o [1]
ui16AlsValue            0x200050f8     0x2  Data  Gb  zcl_samplesw.o [1]
ui8BspKeyMode           0x20004e58     0x4  Data  Lc  bsp_key.o [5]
ui8PortAPinHasIsr       0x20004bb8     0x4  Data  Lc  io_pin_int.o [5]
ui8PortBPinHasIsr       0x20004bbc     0x4  Data  Lc  io_pin_int.o [5]
ui8PortCPinHasIsr       0x20004bc0     0x4  Data  Lc  io_pin_int.o [5]
ui8PortDPinHasIsr       0x20004bc4     0x4  Data  Lc  io_pin_int.o [5]
ui8RegVal               0x20005140     0x1  Data  Gb  zcl_samplesw.o [1]
updateRolloverflag      0x2000510a     0x1  Data  Lc  mac_mcu.o [1]
writeBuf                0x00211607   0x16c  Code  Lc  osal_nv.o [1]
writeItem               0x00211929   0x182  Code  Lc  osal_nv.o [1]
xferBuf                 0x00211773   0x1b6  Code  Lc  osal_nv.o [1]
zclAnalogDataType       0x00200e0d    0x26  Code  Gb  zcl.o [1]
zclAuthorizeRead        0x002010bd    0x2c  Code  Lc  zcl.o [1]
zclAuthorizeWrite       0x002011cf    0x2c  Code  Lc  zcl.o [1]
zclBuildHdr             0x00200a8f    0x60  Code  Lc  zcl.o [1]
zclCalcHdrSize          0x00200aef    0x14  Code  Lc  zcl.o [1]
zclCmdTable             0x00219d98    0xb8  Data  Lc  zcl.o [1]
zclEZModeErr            0x20005133     0x1  Data  Gb  zcl_ezmode.o [1]
zclEZModeInvokeData     0x20004f08    0x10  Data  Gb  zcl_ezmode.o [1]
zclEZModeMatched        0x20005136     0x1  Data  Gb  zcl_ezmode.o [1]
zclEZModeOpener         0x20005135     0x1  Data  Gb  zcl_ezmode.o [1]
zclEZModeQueryRspEP     0x20005137     0x1  Data  Gb  zcl_ezmode.o [1]
zclEZModeQueryRspNwkAddr
                        0x200050f0     0x2  Data  Gb  zcl_ezmode.o [1]
zclEZModeRegisterData   0x20004ef8    0x10  Data  Gb  zcl_ezmode.o [1]
zclEZModeRegistered     0x20005132     0x1  Data  Gb  zcl_ezmode.o [1]
zclEZModeState          0x20005134     0x1  Data  Gb  zcl_ezmode.o [1]
zclFindAttrRec          0x00200b4b    0x78  Code  Gb  zcl.o [1]
zclFindAttrRecsList     0x00200b2b    0x20  Code  Lc  zcl.o [1]
zclFindClusterOption    0x00200bf7    0x4a  Code  Lc  zcl.o [1]
zclFindPlugin           0x00200b03    0x28  Code  Lc  zcl.o [1]
zclGenCBs               0x200050a0     0x4  Data  Lc  zcl_general.o [1]
zclGenPluginRegisted    0x20005138     0x1  Data  Lc  zcl_general.o [1]
zclGeneral_FindCallbacks
                        0x00204a7f    0x20  Code  Lc  zcl_general.o [1]
zclGeneral_HdlInSpecificCommands
                        0x00204add    0x56  Code  Lc  zcl_general.o [1]
zclGeneral_HdlIncoming  0x00204aa9    0x34  Code  Lc  zcl_general.o [1]
zclGeneral_ProcessInBasic
                        0x00204b33    0x28  Code  Lc  zcl_general.o [1]
zclGeneral_ProcessInIdentity
                        0x00204b5b    0xfa  Code  Lc  zcl_general.o [1]
zclGeneral_ProcessInOnOff
                        0x00204c55    0x32  Code  Lc  zcl_general.o [1]
zclGeneral_RegisterCmdCallbacks
                        0x002049d1    0x5c  Code  Gb  zcl_general.o [1]
zclGeneral_SendIdentifyQueryResponse
                        0x00204a2d    0x52  Code  Gb  zcl_general.o [1]
zclGetAttrDataLength    0x00200f6f    0x46  Code  Gb  zcl.o [1]
zclGetAttrDataLengthUsingCB
                        0x0020103f    0x38  Code  Lc  zcl.o [1]
zclGetAuthorizeCB       0x00200bdd    0x1a  Code  Lc  zcl.o [1]
zclGetClusterOption     0x00200c41    0x26  Code  Lc  zcl.o [1]
zclGetDataTypeLength    0x00200e91    0xde  Code  Gb  zcl.o [1]
zclGetReadWriteCB       0x00200bc3    0x1a  Code  Lc  zcl.o [1]
zclHA_Init              0x0020490d    0x26  Code  Gb  zcl_ha.o [1]
zclHA_LcdStatusLine1    0x0020496d    0x56  Code  Gb  zcl_ha.o [1]
zclHA_uint16toa         0x00204933    0x3a  Code  Gb  zcl_ha.o [1]
zclIsLittleEndianMachine
                        0x00200e33    0x10  Code  Lc  zcl.o [1]
zclParseHdr             0x00200a11    0x7e  Code  Gb  zcl.o [1]
zclParseInConfigReportCmd
                        0x002014c5   0x1a0  Code  Gb  zcl.o [1]
zclParseInConfigReportRspCmd
                        0x00201665    0x62  Code  Lc  zcl.o [1]
zclParseInDefaultRspCmd
                        0x002019cf    0x20  Code  Lc  zcl.o [1]
zclParseInReadCmd       0x002011fb    0x46  Code  Gb  zcl.o [1]
zclParseInReadReportCfgCmd
                        0x002016c7    0x56  Code  Gb  zcl.o [1]
zclParseInReadReportCfgRspCmd
                        0x0020171d   0x1b4  Code  Lc  zcl.o [1]
zclParseInReadRspCmd    0x00201241   0x128  Code  Lc  zcl.o [1]
zclParseInReportCmd     0x002018d1    0xfe  Code  Gb  zcl.o [1]
zclParseInWriteCmd      0x00201369    0xfe  Code  Gb  zcl.o [1]
zclParseInWriteRspCmd   0x00201467    0x5e  Code  Lc  zcl.o [1]
zclProcessInReadCmd     0x002019ef    0xea  Code  Lc  zcl.o [1]
zclProcessInWriteCmd    0x00201ad9   0x16a  Code  Lc  zcl.o [1]
zclProcessInWriteUndividedCmd
                        0x00201cb9   0x2b2  Code  Lc  zcl.o [1]
zclReadAttrData         0x00200fb5    0x32  Code  Gb  zcl.o [1]
zclReadAttrDataUsingCB  0x00201077    0x46  Code  Lc  zcl.o [1]
zclRevertWriteUndividedCmd
                        0x00201c43    0x76  Code  Lc  zcl.o [1]
zclSampleSwSeqNum       0x2000513a     0x1  Data  Gb  zcl_samplesw.o [1]
zclSampleSw_Attrs       0x00219e50    0xb4  Data  Gb  zcl_samplesw_data.o [1]
zclSampleSw_BasicResetCB
                        0x00202be3    0x14  Code  Lc  zcl_samplesw.o [1]
zclSampleSw_CmdCallbacks
                        0x20004224    0x30  Data  Lc  zcl_samplesw.o [1]
zclSampleSw_DateCode    0x0021a290    0x14  Data  Gb  zcl_samplesw_data.o [1]
zclSampleSw_DeviceEnable
                        0x2000431a     0x1  Data  Gb  zcl_samplesw_data.o [1]
zclSampleSw_DstAddr     0x20004f6c     0xc  Data  Gb  zcl_samplesw.o [1]
zclSampleSw_EZModeCB    0x00202cd5    0xfa  Code  Lc  zcl_samplesw.o [1]
zclSampleSw_HWRevision  0x00218cb6     0x1  Data  Gb  zcl_samplesw_data.o [1]
zclSampleSw_HandleKeys  0x0020299d   0x13e  Code  Lc  zcl_samplesw.o [1]
zclSampleSw_IdentifyCB  0x00202bf7    0x12  Code  Lc  zcl_samplesw.o [1]
zclSampleSw_IdentifyQueryRspCB
                        0x00202c09    0x12  Code  Lc  zcl_samplesw.o [1]
zclSampleSw_IdentifyTime
                        0x200050fa     0x2  Data  Gb  zcl_samplesw_data.o [1]
zclSampleSw_InClusterList
                        0x0021a540     0x4  Data  Gb  zcl_samplesw_data.o [1]
zclSampleSw_Init        0x00202743    0xea  Code  Gb  zcl_samplesw.o [1]
zclSampleSw_LcdDisplayHelpMode
                        0x00202b6b    0x22  Code  Gb  zcl_samplesw.o [1]
zclSampleSw_LcdDisplayMainMode
                        0x00202af3    0x78  Code  Gb  zcl_samplesw.o [1]
zclSampleSw_LcdDisplayUpdate
                        0x00202adb    0x18  Code  Gb  zcl_samplesw.o [1]
zclSampleSw_LocationDescription
                        0x2000426c    0x14  Data  Gb  zcl_samplesw_data.o [1]
zclSampleSw_ManufacturerName
                        0x0021a268    0x14  Data  Gb  zcl_samplesw_data.o [1]
zclSampleSw_ModelId     0x0021a27c    0x14  Data  Gb  zcl_samplesw_data.o [1]
zclSampleSw_NwkState    0x20004319     0x1  Data  Gb  zcl_samplesw.o [1]
zclSampleSw_OnOff       0x20005144     0x1  Data  Gb  zcl_samplesw_data.o [1]
zclSampleSw_OnOffSwitchActions
                        0x20004318     0x1  Data  Gb  zcl_samplesw.o [1]
zclSampleSw_OnOffSwitchType
                        0x2000513b     0x1  Data  Gb  zcl_samplesw.o [1]
zclSampleSw_OutClusterList
                        0x0021a544     0x4  Data  Gb  zcl_samplesw_data.o [1]
zclSampleSw_PhysicalEnvironment
                        0x20005143     0x1  Data  Gb  zcl_samplesw_data.o [1]
zclSampleSw_PowerSource
                        0x002197a2     0x1  Data  Gb  zcl_samplesw_data.o [1]
zclSampleSw_ProcessIdentifyTimeChange
                        0x00202b8d    0x56  Code  Lc  zcl_samplesw.o [1]
zclSampleSw_ProcessInDefaultRspCmd
                        0x00202ca7     0x6  Code  Lc  zcl_samplesw.o [1]
zclSampleSw_ProcessInReadRspCmd
                        0x00202c73    0x1a  Code  Lc  zcl_samplesw.o [1]
zclSampleSw_ProcessInWriteRspCmd
                        0x00202c8d    0x1a  Code  Lc  zcl_samplesw.o [1]
zclSampleSw_ProcessIncomingMsg
                        0x00202c1b    0x58  Code  Lc  zcl_samplesw.o [1]
zclSampleSw_ProcessZDOMsgs
                        0x00202cad    0x28  Code  Lc  zcl_samplesw.o [1]
zclSampleSw_RegisterEZModeData
                        0x0021a37c    0x10  Data  Lc  zcl_samplesw.o [1]
zclSampleSw_SimpleDesc  0x20004280    0x14  Data  Gb  zcl_samplesw_data.o [1]
zclSampleSw_TaskID      0x20005139     0x1  Data  Gb  zcl_samplesw.o [1]
zclSampleSw_TransID     0x2000513f     0x1  Data  Gb  zcl_samplesw.o [1]
zclSampleSw_ZCLVersion  0x00218cb7     0x1  Data  Gb  zcl_samplesw_data.o [1]
zclSampleSw_epDesc      0x20004f18    0x10  Data  Gb  zcl_samplesw.o [1]
zclSampleSw_event_loop  0x0020282d   0x170  Code  Gb  zcl_samplesw.o [1]
zclSerializeData        0x00200c9b   0x172  Code  Gb  zcl.o [1]
zclSetSecurityOption    0x00200c67    0x34  Code  Lc  zcl.o [1]
zclWriteAttrData        0x002010e9    0x70  Code  Lc  zcl.o [1]
zclWriteAttrDataUsingCB
                        0x00201171    0x5e  Code  Lc  zcl.o [1]
zcl_BuildAnalogData     0x00200e43    0x4e  Code  Lc  zcl.o [1]
zcl_DeviceOperational   0x00200291    0x5c  Code  Lc  zcl.o [1]
zcl_EZModeAction        0x00204d13   0x130  Code  Gb  zcl_ezmode.o [1]
zcl_HandleExternal      0x0020018f    0x58  Code  Gb  zcl.o [1]
zcl_Init                0x00200101     0x8  Code  Gb  zcl.o [1]
zcl_InvokeEZMode        0x00204ca3    0x70  Code  Gb  zcl_ezmode.o [1]
zcl_ProcessEZMode       0x00204e63   0x19a  Code  Lc  zcl_ezmode.o [1]
zcl_ProcessMessageMSG   0x00200711   0x2fa  Code  Gb  zcl.o [1]
zcl_ReadAttrData        0x00200fe7    0x58  Code  Gb  zcl.o [1]
zcl_RegisterEZMode      0x00204c89    0x1a  Code  Gb  zcl_ezmode.o [1]
zcl_RegisteredMsgTaskID
                        0x20004317     0x1  Data  Gb  zcl.o [1]
zcl_SendCommand         0x002002ed   0x168  Code  Gb  zcl.o [1]
zcl_SendDefaultRspCmd   0x002006b9    0x58  Code  Gb  zcl.o [1]
zcl_SendReadRsp         0x00200469   0x16e  Code  Gb  zcl.o [1]
zcl_SendWriteRsp        0x002005d7    0xe2  Code  Gb  zcl.o [1]
zcl_SetEZModeError      0x00204e5d     0x6  Code  Lc  zcl_ezmode.o [1]
zcl_SetEZModeState      0x00204e43    0x1a  Code  Lc  zcl_ezmode.o [1]
zcl_TaskID              0x20005130     0x1  Data  Gb  zcl.o [1]
zcl_TransID             0x20005131     0x1  Data  Lc  zcl.o [1]
zcl_ValidateAttrDataCB  0x2000508c     0x4  Data  Gb  zcl.o [1]
zcl_event_loop          0x00200109    0x70  Code  Gb  zcl.o [1]
zcl_getRawAFMsg         0x002001e7     0x6  Code  Gb  zcl.o [1]
zcl_registerAttrList    0x0020023d    0x54  Code  Gb  zcl.o [1]
zcl_registerForMsg      0x00200179    0x16  Code  Gb  zcl.o [1]
zcl_registerPlugin      0x002001ed    0x50  Code  Gb  zcl.o [1]
zdappHoldKeys           0x2000514c     0x1  Data  Lc  ZDApp.o [1]
zdoCBFunc               0x20004e9c    0x1c  Data  Gb  ZDApp.o [1]
zdoDiscCounter          0x2000431b     0x1  Data  Gb  ZDApp.o [1]
zdoMsgCBs               0x200050b4     0x4  Data  Gb  ZDProfile.o [1]
zdoSendStateChangeMsg   0x00207285    0x46  Code  Lc  ZDObject.o [1]
zdpMsgProcs             0x00219f94    0x58  Data  Gb  ZDProfile.o [1]
zdpProcessAddrReq       0x002054ff   0x112  Code  Gb  ZDProfile.o [1]
zgApsAckWaitMultiplier  0x2000432e     0x1  Data  Gb  ZGlobals.o [1]
zgApsAllowR19Sec        0x20005157     0x1  Data  Gb  ZGlobals.o [1]
zgApsDefaultMaxBindingTime
                        0x20004304     0x2  Data  Gb  ZGlobals.o [1]
zgApsLinkKeyType        0x20004332     0x1  Data  Gb  ZGlobals.o [1]
zgApsMinDupRejTableSize
                        0x2000430a     0x2  Data  Gb  ZGlobals.o [1]
zgApsNonMemberRadius    0x20004330     0x1  Data  Gb  ZGlobals.o [1]
zgApsTrustCenterAddr    0x20004fe8     0x8  Data  Gb  ZGlobals.o [1]
zgApsUseExtendedPANID   0x20004ff8     0x8  Data  Gb  ZGlobals.o [1]
zgApsUseInsecureJoin    0x2000432f     0x1  Data  Gb  ZGlobals.o [1]
zgApscAckWaitDurationPolled
                        0x20004302     0x2  Data  Gb  ZGlobals.o [1]
zgApscDupRejTimeoutCount
                        0x20004331     0x1  Data  Gb  ZGlobals.o [1]
zgApscDupRejTimeoutInc  0x20004308     0x2  Data  Gb  ZGlobals.o [1]
zgApscMaxFrameRetries   0x2000432d     0x1  Data  Gb  ZGlobals.o [1]
zgBcastDeliveryTime     0x20004328     0x1  Data  Gb  ZGlobals.o [1]
zgChildAgingEnable      0x20005154     0x1  Data  Gb  ZGlobals.o [1]
zgConcentratorDiscoveryTime
                        0x20005151     0x1  Data  Gb  ZGlobals.o [1]
zgConcentratorEnable    0x20005150     0x1  Data  Gb  ZGlobals.o [1]
zgConcentratorRC        0x20005152     0x1  Data  Gb  ZGlobals.o [1]
zgConcentratorRadius    0x2000432a     0x1  Data  Gb  ZGlobals.o [1]
zgConfigPANID           0x2000430c     0x2  Data  Gb  ZGlobals.o [1]
zgDefaultChannelList    0x200042ec     0x4  Data  Gb  ZGlobals.o [1]
zgDefaultStartingScanDuration
                        0x2000431f     0x1  Data  Gb  ZGlobals.o [1]
zgDeviceLogicalType     0x20004333     0x1  Data  Gb  ZGlobals.o [1]
zgExtendedPANID         0x20004ff0     0x8  Data  Gb  ZGlobals.o [1]
zgIndirectMsgTimeout    0x20004321     0x1  Data  Gb  ZGlobals.o [1]
zgInit                  0x0020671b    0x42  Code  Gb  ZGlobals.o [1]
zgInitItems             0x0020675d    0x42  Code  Gb  ZGlobals.o [1]
zgItemInit              0x002066c1    0x5a  Code  Lc  ZGlobals.o [1]
zgItemTable             0x0021997c   0x190  Data  Lc  ZGlobals.o [1]
zgMaxBcastRetires       0x20004326     0x1  Data  Gb  ZGlobals.o [1]
zgMaxDataRetries        0x2000431d     0x1  Data  Gb  ZGlobals.o [1]
zgMaxPollFailureRetries
                        0x2000431e     0x1  Data  Gb  ZGlobals.o [1]
zgNwkCommissionedNwkAddr
                        0x20004306     0x2  Data  Gb  ZGlobals.o [1]
zgNwkLeaveRequestAllowed
                        0x2000432c     0x1  Data  Gb  ZGlobals.o [1]
zgNwkMgrMinTransmissions
                        0x20004335     0x1  Data  Gb  ZGlobals.o [1]
zgNwkMgrMode            0x20004336     0x1  Data  Gb  ZGlobals.o [1]
zgNwkMode               0x20004329     0x1  Data  Gb  ZGlobals.o [1]
zgNwkSrcRtgExpiryTime   0x2000432b     0x1  Data  Gb  ZGlobals.o [1]
zgPassiveAckTimeout     0x20004327     0x1  Data  Gb  ZGlobals.o [1]
zgPollRate              0x200042fa     0x2  Data  Gb  ZGlobals.o [1]
zgPreConfigKeys         0x20005155     0x1  Data  Gb  ZGlobals.o [1]
zgPreconfigKeyInit      0x0020686d    0x48  Code  Lc  ZGlobals.o [1]
zgQueuedPollRate        0x200042fc     0x2  Data  Gb  ZGlobals.o [1]
zgReadStartupOptions    0x0020679f    0x28  Code  Gb  ZGlobals.o [1]
zgRejoinPollRate        0x20004300     0x2  Data  Gb  ZGlobals.o [1]
zgResponsePollRate      0x200042fe     0x2  Data  Gb  ZGlobals.o [1]
zgRouteDiscoveryTime    0x20004324     0x1  Data  Gb  ZGlobals.o [1]
zgRouteExpiryTime       0x20004325     0x1  Data  Gb  ZGlobals.o [1]
zgRouterOffAssocCleanup
                        0x20005153     0x1  Data  Gb  ZGlobals.o [1]
zgSapiEndpoint          0x20004337     0x1  Data  Gb  ZGlobals.o [1]
zgSecurePermitJoin      0x20004323     0x1  Data  Gb  ZGlobals.o [1]
zgSecurityMode          0x20004322     0x1  Data  Gb  ZGlobals.o [1]
zgSetItem               0x0020681d    0x50  Code  Gb  ZGlobals.o [1]
zgStackProfile          0x20004320     0x1  Data  Gb  ZGlobals.o [1]
zgStartDelay            0x20004334     0x1  Data  Gb  ZGlobals.o [1]
zgUseDefaultTCLK        0x20005156     0x1  Data  Gb  ZGlobals.o [1]
zgWriteStartupOptions   0x002067c7    0x56  Code  Gb  ZGlobals.o [1]
zmacCBSizeTable         0x0021a2a4    0x14  Data  Gb  zmac_cb.o [1]
zmain_dev_info          0x002196c9    0x70  Code  Lc  ZMain.o [1]
zmain_ext_addr          0x002195c1   0x108  Code  Lc  ZMain.o [1]
zmain_lcd_init          0x00219739     0xc  Code  Lc  ZMain.o [1]


[1] = C:\Users\Nguyen\Documents\GitHub\FinalProject\Z-Stack Home 1.2.0\Projects\zstack\HomeAutomation\SampleSwitch - Copy\CC2538\EndDevice\Obj
[2] = command line
[3] = EndDevice.a
[4] = TIMAC-CC2538.a
[5] = bsp.lib
[6] = dl7M_tln.a
[7] = m7M_tl.a
[8] = rt7M_tl.a
[9] = sdriverlib.lib
[10] = shb_l.a

  104 686 bytes of readonly  code memory
    3 445 bytes of readonly  data memory
   12 645 bytes of readwrite data memory (+ 12 288 absolute)

Errors: none
Warnings: none
